ARM GAS  C:\Users\mauro\AppData\Local\Temp\cczNnVbS.s 			page 1


   1              		.cpu cortex-m4
   2              		.arch armv7e-m
   3              		.fpu fpv4-sp-d16
   4              		.eabi_attribute 27, 1
   5              		.eabi_attribute 28, 1
   6              		.eabi_attribute 20, 1
   7              		.eabi_attribute 21, 1
   8              		.eabi_attribute 23, 3
   9              		.eabi_attribute 24, 1
  10              		.eabi_attribute 25, 1
  11              		.eabi_attribute 26, 1
  12              		.eabi_attribute 30, 6
  13              		.eabi_attribute 34, 1
  14              		.eabi_attribute 18, 4
  15              		.file	"stm32f4xx_hal_adc_ex.c"
  16              		.text
  17              	.Ltext0:
  18              		.cfi_sections	.debug_frame
  19              		.section	.text.HAL_ADCEx_InjectedStart,"ax",%progbits
  20              		.align	1
  21              		.global	HAL_ADCEx_InjectedStart
  22              		.syntax unified
  23              		.thumb
  24              		.thumb_func
  26              	HAL_ADCEx_InjectedStart:
  27              	.LFB220:
  28              		.file 1 "Drivers/STM32F4xx_HAL_Driver/Src/stm32f4xx_hal_adc_ex.c"
   1:Drivers/STM32F4xx_HAL_Driver/Src/stm32f4xx_hal_adc_ex.c **** /**
   2:Drivers/STM32F4xx_HAL_Driver/Src/stm32f4xx_hal_adc_ex.c ****   ******************************************************************************
   3:Drivers/STM32F4xx_HAL_Driver/Src/stm32f4xx_hal_adc_ex.c ****   * @file    stm32f4xx_hal_adc_ex.c
   4:Drivers/STM32F4xx_HAL_Driver/Src/stm32f4xx_hal_adc_ex.c ****   * @author  MCD Application Team
   5:Drivers/STM32F4xx_HAL_Driver/Src/stm32f4xx_hal_adc_ex.c ****   * @brief   This file provides firmware functions to manage the following
   6:Drivers/STM32F4xx_HAL_Driver/Src/stm32f4xx_hal_adc_ex.c ****   *          functionalities of the ADC extension peripheral:
   7:Drivers/STM32F4xx_HAL_Driver/Src/stm32f4xx_hal_adc_ex.c ****   *           + Extended features functions
   8:Drivers/STM32F4xx_HAL_Driver/Src/stm32f4xx_hal_adc_ex.c ****   *
   9:Drivers/STM32F4xx_HAL_Driver/Src/stm32f4xx_hal_adc_ex.c ****   ******************************************************************************
  10:Drivers/STM32F4xx_HAL_Driver/Src/stm32f4xx_hal_adc_ex.c ****   * @attention
  11:Drivers/STM32F4xx_HAL_Driver/Src/stm32f4xx_hal_adc_ex.c ****   *
  12:Drivers/STM32F4xx_HAL_Driver/Src/stm32f4xx_hal_adc_ex.c ****   * Copyright (c) 2017 STMicroelectronics.
  13:Drivers/STM32F4xx_HAL_Driver/Src/stm32f4xx_hal_adc_ex.c ****   * All rights reserved.
  14:Drivers/STM32F4xx_HAL_Driver/Src/stm32f4xx_hal_adc_ex.c ****   *
  15:Drivers/STM32F4xx_HAL_Driver/Src/stm32f4xx_hal_adc_ex.c ****   * This software is licensed under terms that can be found in the LICENSE file
  16:Drivers/STM32F4xx_HAL_Driver/Src/stm32f4xx_hal_adc_ex.c ****   * in the root directory of this software component.
  17:Drivers/STM32F4xx_HAL_Driver/Src/stm32f4xx_hal_adc_ex.c ****   * If no LICENSE file comes with this software, it is provided AS-IS.
  18:Drivers/STM32F4xx_HAL_Driver/Src/stm32f4xx_hal_adc_ex.c ****   *
  19:Drivers/STM32F4xx_HAL_Driver/Src/stm32f4xx_hal_adc_ex.c ****   ******************************************************************************
  20:Drivers/STM32F4xx_HAL_Driver/Src/stm32f4xx_hal_adc_ex.c ****   @verbatim
  21:Drivers/STM32F4xx_HAL_Driver/Src/stm32f4xx_hal_adc_ex.c ****   ==============================================================================
  22:Drivers/STM32F4xx_HAL_Driver/Src/stm32f4xx_hal_adc_ex.c ****                     ##### How to use this driver #####
  23:Drivers/STM32F4xx_HAL_Driver/Src/stm32f4xx_hal_adc_ex.c ****   ==============================================================================
  24:Drivers/STM32F4xx_HAL_Driver/Src/stm32f4xx_hal_adc_ex.c ****     [..]
  25:Drivers/STM32F4xx_HAL_Driver/Src/stm32f4xx_hal_adc_ex.c ****     (#)Initialize the ADC low level resources by implementing the HAL_ADC_MspInit():
  26:Drivers/STM32F4xx_HAL_Driver/Src/stm32f4xx_hal_adc_ex.c ****        (##) Enable the ADC interface clock using __HAL_RCC_ADC_CLK_ENABLE()
  27:Drivers/STM32F4xx_HAL_Driver/Src/stm32f4xx_hal_adc_ex.c ****        (##) ADC pins configuration
  28:Drivers/STM32F4xx_HAL_Driver/Src/stm32f4xx_hal_adc_ex.c ****              (+++) Enable the clock for the ADC GPIOs using the following function:
  29:Drivers/STM32F4xx_HAL_Driver/Src/stm32f4xx_hal_adc_ex.c ****                    __HAL_RCC_GPIOx_CLK_ENABLE()
  30:Drivers/STM32F4xx_HAL_Driver/Src/stm32f4xx_hal_adc_ex.c ****              (+++) Configure these ADC pins in analog mode using HAL_GPIO_Init()
ARM GAS  C:\Users\mauro\AppData\Local\Temp\cczNnVbS.s 			page 2


  31:Drivers/STM32F4xx_HAL_Driver/Src/stm32f4xx_hal_adc_ex.c ****        (##) In case of using interrupts (e.g. HAL_ADC_Start_IT())
  32:Drivers/STM32F4xx_HAL_Driver/Src/stm32f4xx_hal_adc_ex.c ****              (+++) Configure the ADC interrupt priority using HAL_NVIC_SetPriority()
  33:Drivers/STM32F4xx_HAL_Driver/Src/stm32f4xx_hal_adc_ex.c ****              (+++) Enable the ADC IRQ handler using HAL_NVIC_EnableIRQ()
  34:Drivers/STM32F4xx_HAL_Driver/Src/stm32f4xx_hal_adc_ex.c ****              (+++) In ADC IRQ handler, call HAL_ADC_IRQHandler()
  35:Drivers/STM32F4xx_HAL_Driver/Src/stm32f4xx_hal_adc_ex.c ****       (##) In case of using DMA to control data transfer (e.g. HAL_ADC_Start_DMA())
  36:Drivers/STM32F4xx_HAL_Driver/Src/stm32f4xx_hal_adc_ex.c ****              (+++) Enable the DMAx interface clock using __HAL_RCC_DMAx_CLK_ENABLE()
  37:Drivers/STM32F4xx_HAL_Driver/Src/stm32f4xx_hal_adc_ex.c ****              (+++) Configure and enable two DMA streams stream for managing data
  38:Drivers/STM32F4xx_HAL_Driver/Src/stm32f4xx_hal_adc_ex.c ****                  transfer from peripheral to memory (output stream)
  39:Drivers/STM32F4xx_HAL_Driver/Src/stm32f4xx_hal_adc_ex.c ****              (+++) Associate the initialized DMA handle to the ADC DMA handle
  40:Drivers/STM32F4xx_HAL_Driver/Src/stm32f4xx_hal_adc_ex.c ****                  using  __HAL_LINKDMA()
  41:Drivers/STM32F4xx_HAL_Driver/Src/stm32f4xx_hal_adc_ex.c ****              (+++) Configure the priority and enable the NVIC for the transfer complete
  42:Drivers/STM32F4xx_HAL_Driver/Src/stm32f4xx_hal_adc_ex.c ****                  interrupt on the two DMA Streams. The output stream should have higher
  43:Drivers/STM32F4xx_HAL_Driver/Src/stm32f4xx_hal_adc_ex.c ****                  priority than the input stream.
  44:Drivers/STM32F4xx_HAL_Driver/Src/stm32f4xx_hal_adc_ex.c ****      (#) Configure the ADC Prescaler, conversion resolution and data alignment
  45:Drivers/STM32F4xx_HAL_Driver/Src/stm32f4xx_hal_adc_ex.c ****          using the HAL_ADC_Init() function.
  46:Drivers/STM32F4xx_HAL_Driver/Src/stm32f4xx_hal_adc_ex.c **** 
  47:Drivers/STM32F4xx_HAL_Driver/Src/stm32f4xx_hal_adc_ex.c ****      (#) Configure the ADC Injected channels group features, use HAL_ADC_Init()
  48:Drivers/STM32F4xx_HAL_Driver/Src/stm32f4xx_hal_adc_ex.c ****          and HAL_ADC_ConfigChannel() functions.
  49:Drivers/STM32F4xx_HAL_Driver/Src/stm32f4xx_hal_adc_ex.c **** 
  50:Drivers/STM32F4xx_HAL_Driver/Src/stm32f4xx_hal_adc_ex.c ****      (#) Three operation modes are available within this driver:
  51:Drivers/STM32F4xx_HAL_Driver/Src/stm32f4xx_hal_adc_ex.c **** 
  52:Drivers/STM32F4xx_HAL_Driver/Src/stm32f4xx_hal_adc_ex.c ****      *** Polling mode IO operation ***
  53:Drivers/STM32F4xx_HAL_Driver/Src/stm32f4xx_hal_adc_ex.c ****      =================================
  54:Drivers/STM32F4xx_HAL_Driver/Src/stm32f4xx_hal_adc_ex.c ****      [..]
  55:Drivers/STM32F4xx_HAL_Driver/Src/stm32f4xx_hal_adc_ex.c ****        (+) Start the ADC peripheral using HAL_ADCEx_InjectedStart()
  56:Drivers/STM32F4xx_HAL_Driver/Src/stm32f4xx_hal_adc_ex.c ****        (+) Wait for end of conversion using HAL_ADC_PollForConversion(), at this stage
  57:Drivers/STM32F4xx_HAL_Driver/Src/stm32f4xx_hal_adc_ex.c ****            user can specify the value of timeout according to his end application
  58:Drivers/STM32F4xx_HAL_Driver/Src/stm32f4xx_hal_adc_ex.c ****        (+) To read the ADC converted values, use the HAL_ADCEx_InjectedGetValue() function.
  59:Drivers/STM32F4xx_HAL_Driver/Src/stm32f4xx_hal_adc_ex.c ****        (+) Stop the ADC peripheral using HAL_ADCEx_InjectedStop()
  60:Drivers/STM32F4xx_HAL_Driver/Src/stm32f4xx_hal_adc_ex.c **** 
  61:Drivers/STM32F4xx_HAL_Driver/Src/stm32f4xx_hal_adc_ex.c ****      *** Interrupt mode IO operation ***
  62:Drivers/STM32F4xx_HAL_Driver/Src/stm32f4xx_hal_adc_ex.c ****      ===================================
  63:Drivers/STM32F4xx_HAL_Driver/Src/stm32f4xx_hal_adc_ex.c ****      [..]
  64:Drivers/STM32F4xx_HAL_Driver/Src/stm32f4xx_hal_adc_ex.c ****        (+) Start the ADC peripheral using HAL_ADCEx_InjectedStart_IT()
  65:Drivers/STM32F4xx_HAL_Driver/Src/stm32f4xx_hal_adc_ex.c ****        (+) Use HAL_ADC_IRQHandler() called under ADC_IRQHandler() Interrupt subroutine
  66:Drivers/STM32F4xx_HAL_Driver/Src/stm32f4xx_hal_adc_ex.c ****        (+) At ADC end of conversion HAL_ADCEx_InjectedConvCpltCallback() function is executed and u
  67:Drivers/STM32F4xx_HAL_Driver/Src/stm32f4xx_hal_adc_ex.c ****             add his own code by customization of function pointer HAL_ADCEx_InjectedConvCpltCallbac
  68:Drivers/STM32F4xx_HAL_Driver/Src/stm32f4xx_hal_adc_ex.c ****        (+) In case of ADC Error, HAL_ADCEx_InjectedErrorCallback() function is executed and user ca
  69:Drivers/STM32F4xx_HAL_Driver/Src/stm32f4xx_hal_adc_ex.c ****             add his own code by customization of function pointer HAL_ADCEx_InjectedErrorCallback
  70:Drivers/STM32F4xx_HAL_Driver/Src/stm32f4xx_hal_adc_ex.c ****        (+) Stop the ADC peripheral using HAL_ADCEx_InjectedStop_IT()
  71:Drivers/STM32F4xx_HAL_Driver/Src/stm32f4xx_hal_adc_ex.c **** 
  72:Drivers/STM32F4xx_HAL_Driver/Src/stm32f4xx_hal_adc_ex.c ****      *** Multi mode ADCs Regular channels configuration ***
  73:Drivers/STM32F4xx_HAL_Driver/Src/stm32f4xx_hal_adc_ex.c ****      ======================================================
  74:Drivers/STM32F4xx_HAL_Driver/Src/stm32f4xx_hal_adc_ex.c ****      [..]
  75:Drivers/STM32F4xx_HAL_Driver/Src/stm32f4xx_hal_adc_ex.c ****        (+) Select the Multi mode ADC regular channels features (dual or triple mode)
  76:Drivers/STM32F4xx_HAL_Driver/Src/stm32f4xx_hal_adc_ex.c ****           and configure the DMA mode using HAL_ADCEx_MultiModeConfigChannel() functions.
  77:Drivers/STM32F4xx_HAL_Driver/Src/stm32f4xx_hal_adc_ex.c ****        (+) Start the ADC peripheral using HAL_ADCEx_MultiModeStart_DMA(), at this stage the user sp
  78:Drivers/STM32F4xx_HAL_Driver/Src/stm32f4xx_hal_adc_ex.c ****            of data to be transferred at each end of conversion
  79:Drivers/STM32F4xx_HAL_Driver/Src/stm32f4xx_hal_adc_ex.c ****        (+) Read the ADCs converted values using the HAL_ADCEx_MultiModeGetValue() function.
  80:Drivers/STM32F4xx_HAL_Driver/Src/stm32f4xx_hal_adc_ex.c **** 
  81:Drivers/STM32F4xx_HAL_Driver/Src/stm32f4xx_hal_adc_ex.c **** 
  82:Drivers/STM32F4xx_HAL_Driver/Src/stm32f4xx_hal_adc_ex.c ****     @endverbatim
  83:Drivers/STM32F4xx_HAL_Driver/Src/stm32f4xx_hal_adc_ex.c ****   */
  84:Drivers/STM32F4xx_HAL_Driver/Src/stm32f4xx_hal_adc_ex.c **** 
  85:Drivers/STM32F4xx_HAL_Driver/Src/stm32f4xx_hal_adc_ex.c **** /* Includes ------------------------------------------------------------------*/
  86:Drivers/STM32F4xx_HAL_Driver/Src/stm32f4xx_hal_adc_ex.c **** #include "stm32f4xx_hal.h"
  87:Drivers/STM32F4xx_HAL_Driver/Src/stm32f4xx_hal_adc_ex.c **** 
ARM GAS  C:\Users\mauro\AppData\Local\Temp\cczNnVbS.s 			page 3


  88:Drivers/STM32F4xx_HAL_Driver/Src/stm32f4xx_hal_adc_ex.c **** /** @addtogroup STM32F4xx_HAL_Driver
  89:Drivers/STM32F4xx_HAL_Driver/Src/stm32f4xx_hal_adc_ex.c ****   * @{
  90:Drivers/STM32F4xx_HAL_Driver/Src/stm32f4xx_hal_adc_ex.c ****   */
  91:Drivers/STM32F4xx_HAL_Driver/Src/stm32f4xx_hal_adc_ex.c **** 
  92:Drivers/STM32F4xx_HAL_Driver/Src/stm32f4xx_hal_adc_ex.c **** /** @defgroup ADCEx ADCEx
  93:Drivers/STM32F4xx_HAL_Driver/Src/stm32f4xx_hal_adc_ex.c ****   * @brief ADC Extended driver modules
  94:Drivers/STM32F4xx_HAL_Driver/Src/stm32f4xx_hal_adc_ex.c ****   * @{
  95:Drivers/STM32F4xx_HAL_Driver/Src/stm32f4xx_hal_adc_ex.c ****   */
  96:Drivers/STM32F4xx_HAL_Driver/Src/stm32f4xx_hal_adc_ex.c **** 
  97:Drivers/STM32F4xx_HAL_Driver/Src/stm32f4xx_hal_adc_ex.c **** #ifdef HAL_ADC_MODULE_ENABLED
  98:Drivers/STM32F4xx_HAL_Driver/Src/stm32f4xx_hal_adc_ex.c **** 
  99:Drivers/STM32F4xx_HAL_Driver/Src/stm32f4xx_hal_adc_ex.c **** /* Private typedef -----------------------------------------------------------*/
 100:Drivers/STM32F4xx_HAL_Driver/Src/stm32f4xx_hal_adc_ex.c **** /* Private define ------------------------------------------------------------*/
 101:Drivers/STM32F4xx_HAL_Driver/Src/stm32f4xx_hal_adc_ex.c **** /* Private macro -------------------------------------------------------------*/
 102:Drivers/STM32F4xx_HAL_Driver/Src/stm32f4xx_hal_adc_ex.c **** /* Private variables ---------------------------------------------------------*/
 103:Drivers/STM32F4xx_HAL_Driver/Src/stm32f4xx_hal_adc_ex.c **** /** @addtogroup ADCEx_Private_Functions
 104:Drivers/STM32F4xx_HAL_Driver/Src/stm32f4xx_hal_adc_ex.c ****   * @{
 105:Drivers/STM32F4xx_HAL_Driver/Src/stm32f4xx_hal_adc_ex.c ****   */
 106:Drivers/STM32F4xx_HAL_Driver/Src/stm32f4xx_hal_adc_ex.c **** /* Private function prototypes -----------------------------------------------*/
 107:Drivers/STM32F4xx_HAL_Driver/Src/stm32f4xx_hal_adc_ex.c **** static void ADC_MultiModeDMAConvCplt(DMA_HandleTypeDef *hdma);
 108:Drivers/STM32F4xx_HAL_Driver/Src/stm32f4xx_hal_adc_ex.c **** static void ADC_MultiModeDMAError(DMA_HandleTypeDef *hdma);
 109:Drivers/STM32F4xx_HAL_Driver/Src/stm32f4xx_hal_adc_ex.c **** static void ADC_MultiModeDMAHalfConvCplt(DMA_HandleTypeDef *hdma);
 110:Drivers/STM32F4xx_HAL_Driver/Src/stm32f4xx_hal_adc_ex.c **** /**
 111:Drivers/STM32F4xx_HAL_Driver/Src/stm32f4xx_hal_adc_ex.c ****   * @}
 112:Drivers/STM32F4xx_HAL_Driver/Src/stm32f4xx_hal_adc_ex.c ****   */
 113:Drivers/STM32F4xx_HAL_Driver/Src/stm32f4xx_hal_adc_ex.c **** 
 114:Drivers/STM32F4xx_HAL_Driver/Src/stm32f4xx_hal_adc_ex.c **** /* Exported functions --------------------------------------------------------*/
 115:Drivers/STM32F4xx_HAL_Driver/Src/stm32f4xx_hal_adc_ex.c **** /** @defgroup ADCEx_Exported_Functions ADC Exported Functions
 116:Drivers/STM32F4xx_HAL_Driver/Src/stm32f4xx_hal_adc_ex.c ****   * @{
 117:Drivers/STM32F4xx_HAL_Driver/Src/stm32f4xx_hal_adc_ex.c ****   */
 118:Drivers/STM32F4xx_HAL_Driver/Src/stm32f4xx_hal_adc_ex.c **** 
 119:Drivers/STM32F4xx_HAL_Driver/Src/stm32f4xx_hal_adc_ex.c **** /** @defgroup ADCEx_Exported_Functions_Group1  Extended features functions
 120:Drivers/STM32F4xx_HAL_Driver/Src/stm32f4xx_hal_adc_ex.c ****   *  @brief    Extended features functions
 121:Drivers/STM32F4xx_HAL_Driver/Src/stm32f4xx_hal_adc_ex.c ****   *
 122:Drivers/STM32F4xx_HAL_Driver/Src/stm32f4xx_hal_adc_ex.c **** @verbatim
 123:Drivers/STM32F4xx_HAL_Driver/Src/stm32f4xx_hal_adc_ex.c ****  ===============================================================================
 124:Drivers/STM32F4xx_HAL_Driver/Src/stm32f4xx_hal_adc_ex.c ****                  ##### Extended features functions #####
 125:Drivers/STM32F4xx_HAL_Driver/Src/stm32f4xx_hal_adc_ex.c ****  ===============================================================================
 126:Drivers/STM32F4xx_HAL_Driver/Src/stm32f4xx_hal_adc_ex.c ****     [..]  This section provides functions allowing to:
 127:Drivers/STM32F4xx_HAL_Driver/Src/stm32f4xx_hal_adc_ex.c ****       (+) Start conversion of injected channel.
 128:Drivers/STM32F4xx_HAL_Driver/Src/stm32f4xx_hal_adc_ex.c ****       (+) Stop conversion of injected channel.
 129:Drivers/STM32F4xx_HAL_Driver/Src/stm32f4xx_hal_adc_ex.c ****       (+) Start multimode and enable DMA transfer.
 130:Drivers/STM32F4xx_HAL_Driver/Src/stm32f4xx_hal_adc_ex.c ****       (+) Stop multimode and disable DMA transfer.
 131:Drivers/STM32F4xx_HAL_Driver/Src/stm32f4xx_hal_adc_ex.c ****       (+) Get result of injected channel conversion.
 132:Drivers/STM32F4xx_HAL_Driver/Src/stm32f4xx_hal_adc_ex.c ****       (+) Get result of multimode conversion.
 133:Drivers/STM32F4xx_HAL_Driver/Src/stm32f4xx_hal_adc_ex.c ****       (+) Configure injected channels.
 134:Drivers/STM32F4xx_HAL_Driver/Src/stm32f4xx_hal_adc_ex.c ****       (+) Configure multimode.
 135:Drivers/STM32F4xx_HAL_Driver/Src/stm32f4xx_hal_adc_ex.c **** 
 136:Drivers/STM32F4xx_HAL_Driver/Src/stm32f4xx_hal_adc_ex.c **** @endverbatim
 137:Drivers/STM32F4xx_HAL_Driver/Src/stm32f4xx_hal_adc_ex.c ****   * @{
 138:Drivers/STM32F4xx_HAL_Driver/Src/stm32f4xx_hal_adc_ex.c ****   */
 139:Drivers/STM32F4xx_HAL_Driver/Src/stm32f4xx_hal_adc_ex.c **** 
 140:Drivers/STM32F4xx_HAL_Driver/Src/stm32f4xx_hal_adc_ex.c **** /**
 141:Drivers/STM32F4xx_HAL_Driver/Src/stm32f4xx_hal_adc_ex.c ****   * @brief  Enables the selected ADC software start conversion of the injected channels.
 142:Drivers/STM32F4xx_HAL_Driver/Src/stm32f4xx_hal_adc_ex.c ****   * @param  hadc pointer to a ADC_HandleTypeDef structure that contains
 143:Drivers/STM32F4xx_HAL_Driver/Src/stm32f4xx_hal_adc_ex.c ****   *         the configuration information for the specified ADC.
 144:Drivers/STM32F4xx_HAL_Driver/Src/stm32f4xx_hal_adc_ex.c ****   * @retval HAL status
ARM GAS  C:\Users\mauro\AppData\Local\Temp\cczNnVbS.s 			page 4


 145:Drivers/STM32F4xx_HAL_Driver/Src/stm32f4xx_hal_adc_ex.c ****   */
 146:Drivers/STM32F4xx_HAL_Driver/Src/stm32f4xx_hal_adc_ex.c **** HAL_StatusTypeDef HAL_ADCEx_InjectedStart(ADC_HandleTypeDef *hadc)
 147:Drivers/STM32F4xx_HAL_Driver/Src/stm32f4xx_hal_adc_ex.c **** {
  29              		.loc 1 147 1
  30              		.cfi_startproc
  31              		@ args = 0, pretend = 0, frame = 24
  32              		@ frame_needed = 1, uses_anonymous_args = 0
  33              		@ link register save eliminated.
  34 0000 80B4     		push	{r7}
  35              	.LCFI0:
  36              		.cfi_def_cfa_offset 4
  37              		.cfi_offset 7, -4
  38 0002 87B0     		sub	sp, sp, #28
  39              	.LCFI1:
  40              		.cfi_def_cfa_offset 32
  41 0004 00AF     		add	r7, sp, #0
  42              	.LCFI2:
  43              		.cfi_def_cfa_register 7
  44 0006 7860     		str	r0, [r7, #4]
 148:Drivers/STM32F4xx_HAL_Driver/Src/stm32f4xx_hal_adc_ex.c ****   __IO uint32_t counter = 0U;
  45              		.loc 1 148 17
  46 0008 0023     		movs	r3, #0
  47 000a BB60     		str	r3, [r7, #8]
 149:Drivers/STM32F4xx_HAL_Driver/Src/stm32f4xx_hal_adc_ex.c ****   uint32_t tmp1 = 0U, tmp2 = 0U;
  48              		.loc 1 149 12
  49 000c 0023     		movs	r3, #0
  50 000e 7B61     		str	r3, [r7, #20]
  51              		.loc 1 149 23
  52 0010 0023     		movs	r3, #0
  53 0012 3B61     		str	r3, [r7, #16]
 150:Drivers/STM32F4xx_HAL_Driver/Src/stm32f4xx_hal_adc_ex.c ****   ADC_Common_TypeDef *tmpADC_Common;
 151:Drivers/STM32F4xx_HAL_Driver/Src/stm32f4xx_hal_adc_ex.c **** 
 152:Drivers/STM32F4xx_HAL_Driver/Src/stm32f4xx_hal_adc_ex.c ****   /* Process locked */
 153:Drivers/STM32F4xx_HAL_Driver/Src/stm32f4xx_hal_adc_ex.c ****   __HAL_LOCK(hadc);
  54              		.loc 1 153 3
  55 0014 7B68     		ldr	r3, [r7, #4]
  56 0016 93F83C30 		ldrb	r3, [r3, #60]	@ zero_extendqisi2
  57 001a 012B     		cmp	r3, #1
  58 001c 01D1     		bne	.L2
  59              		.loc 1 153 3 is_stmt 0 discriminator 1
  60 001e 0223     		movs	r3, #2
  61 0020 AAE0     		b	.L3
  62              	.L2:
  63              		.loc 1 153 3 discriminator 2
  64 0022 7B68     		ldr	r3, [r7, #4]
  65 0024 0122     		movs	r2, #1
  66 0026 83F83C20 		strb	r2, [r3, #60]
 154:Drivers/STM32F4xx_HAL_Driver/Src/stm32f4xx_hal_adc_ex.c **** 
 155:Drivers/STM32F4xx_HAL_Driver/Src/stm32f4xx_hal_adc_ex.c ****   /* Enable the ADC peripheral */
 156:Drivers/STM32F4xx_HAL_Driver/Src/stm32f4xx_hal_adc_ex.c **** 
 157:Drivers/STM32F4xx_HAL_Driver/Src/stm32f4xx_hal_adc_ex.c ****   /* Check if ADC peripheral is disabled in order to enable it and wait during
 158:Drivers/STM32F4xx_HAL_Driver/Src/stm32f4xx_hal_adc_ex.c ****      Tstab time the ADC's stabilization */
 159:Drivers/STM32F4xx_HAL_Driver/Src/stm32f4xx_hal_adc_ex.c ****   if ((hadc->Instance->CR2 & ADC_CR2_ADON) != ADC_CR2_ADON)
  67              		.loc 1 159 12 is_stmt 1 discriminator 2
  68 002a 7B68     		ldr	r3, [r7, #4]
  69 002c 1B68     		ldr	r3, [r3]
  70              		.loc 1 159 22 discriminator 2
ARM GAS  C:\Users\mauro\AppData\Local\Temp\cczNnVbS.s 			page 5


  71 002e 9B68     		ldr	r3, [r3, #8]
  72              		.loc 1 159 28 discriminator 2
  73 0030 03F00103 		and	r3, r3, #1
  74              		.loc 1 159 6 discriminator 2
  75 0034 012B     		cmp	r3, #1
  76 0036 18D0     		beq	.L4
 160:Drivers/STM32F4xx_HAL_Driver/Src/stm32f4xx_hal_adc_ex.c ****   {
 161:Drivers/STM32F4xx_HAL_Driver/Src/stm32f4xx_hal_adc_ex.c ****     /* Enable the Peripheral */
 162:Drivers/STM32F4xx_HAL_Driver/Src/stm32f4xx_hal_adc_ex.c ****     __HAL_ADC_ENABLE(hadc);
  77              		.loc 1 162 5
  78 0038 7B68     		ldr	r3, [r7, #4]
  79 003a 1B68     		ldr	r3, [r3]
  80 003c 9A68     		ldr	r2, [r3, #8]
  81 003e 7B68     		ldr	r3, [r7, #4]
  82 0040 1B68     		ldr	r3, [r3]
  83 0042 42F00102 		orr	r2, r2, #1
  84 0046 9A60     		str	r2, [r3, #8]
 163:Drivers/STM32F4xx_HAL_Driver/Src/stm32f4xx_hal_adc_ex.c **** 
 164:Drivers/STM32F4xx_HAL_Driver/Src/stm32f4xx_hal_adc_ex.c ****     /* Delay for ADC stabilization time */
 165:Drivers/STM32F4xx_HAL_Driver/Src/stm32f4xx_hal_adc_ex.c ****     /* Compute number of CPU cycles to wait for */
 166:Drivers/STM32F4xx_HAL_Driver/Src/stm32f4xx_hal_adc_ex.c ****     counter = (ADC_STAB_DELAY_US * (SystemCoreClock / 1000000U));
  85              		.loc 1 166 53
  86 0048 4E4B     		ldr	r3, .L11
  87 004a 1B68     		ldr	r3, [r3]
  88 004c 4E4A     		ldr	r2, .L11+4
  89 004e A2FB0323 		umull	r2, r3, r2, r3
  90 0052 9A0C     		lsrs	r2, r3, #18
  91              		.loc 1 166 34
  92 0054 1346     		mov	r3, r2
  93 0056 5B00     		lsls	r3, r3, #1
  94 0058 1344     		add	r3, r3, r2
  95              		.loc 1 166 13
  96 005a BB60     		str	r3, [r7, #8]
 167:Drivers/STM32F4xx_HAL_Driver/Src/stm32f4xx_hal_adc_ex.c ****     while (counter != 0U)
  97              		.loc 1 167 11
  98 005c 02E0     		b	.L5
  99              	.L6:
 168:Drivers/STM32F4xx_HAL_Driver/Src/stm32f4xx_hal_adc_ex.c ****     {
 169:Drivers/STM32F4xx_HAL_Driver/Src/stm32f4xx_hal_adc_ex.c ****       counter--;
 100              		.loc 1 169 14
 101 005e BB68     		ldr	r3, [r7, #8]
 102 0060 013B     		subs	r3, r3, #1
 103 0062 BB60     		str	r3, [r7, #8]
 104              	.L5:
 167:Drivers/STM32F4xx_HAL_Driver/Src/stm32f4xx_hal_adc_ex.c ****     while (counter != 0U)
 105              		.loc 1 167 20
 106 0064 BB68     		ldr	r3, [r7, #8]
 107 0066 002B     		cmp	r3, #0
 108 0068 F9D1     		bne	.L6
 109              	.L4:
 170:Drivers/STM32F4xx_HAL_Driver/Src/stm32f4xx_hal_adc_ex.c ****     }
 171:Drivers/STM32F4xx_HAL_Driver/Src/stm32f4xx_hal_adc_ex.c ****   }
 172:Drivers/STM32F4xx_HAL_Driver/Src/stm32f4xx_hal_adc_ex.c **** 
 173:Drivers/STM32F4xx_HAL_Driver/Src/stm32f4xx_hal_adc_ex.c ****   /* Start conversion if ADC is effectively enabled */
 174:Drivers/STM32F4xx_HAL_Driver/Src/stm32f4xx_hal_adc_ex.c ****   if (HAL_IS_BIT_SET(hadc->Instance->CR2, ADC_CR2_ADON))
 110              		.loc 1 174 7
 111 006a 7B68     		ldr	r3, [r7, #4]
ARM GAS  C:\Users\mauro\AppData\Local\Temp\cczNnVbS.s 			page 6


 112 006c 1B68     		ldr	r3, [r3]
 113 006e 9B68     		ldr	r3, [r3, #8]
 114 0070 03F00103 		and	r3, r3, #1
 115              		.loc 1 174 6
 116 0074 012B     		cmp	r3, #1
 117 0076 72D1     		bne	.L7
 175:Drivers/STM32F4xx_HAL_Driver/Src/stm32f4xx_hal_adc_ex.c ****   {
 176:Drivers/STM32F4xx_HAL_Driver/Src/stm32f4xx_hal_adc_ex.c ****     /* Set ADC state                                                          */
 177:Drivers/STM32F4xx_HAL_Driver/Src/stm32f4xx_hal_adc_ex.c ****     /* - Clear state bitfield related to injected group conversion results    */
 178:Drivers/STM32F4xx_HAL_Driver/Src/stm32f4xx_hal_adc_ex.c ****     /* - Set state bitfield related to injected operation                     */
 179:Drivers/STM32F4xx_HAL_Driver/Src/stm32f4xx_hal_adc_ex.c ****     ADC_STATE_CLR_SET(hadc->State,
 118              		.loc 1 179 5
 119 0078 7B68     		ldr	r3, [r7, #4]
 120 007a 1B6C     		ldr	r3, [r3, #64]
 121 007c 23F44053 		bic	r3, r3, #12288
 122 0080 23F00103 		bic	r3, r3, #1
 123 0084 43F48052 		orr	r2, r3, #4096
 124 0088 7B68     		ldr	r3, [r7, #4]
 125 008a 1A64     		str	r2, [r3, #64]
 180:Drivers/STM32F4xx_HAL_Driver/Src/stm32f4xx_hal_adc_ex.c ****                       HAL_ADC_STATE_READY | HAL_ADC_STATE_INJ_EOC,
 181:Drivers/STM32F4xx_HAL_Driver/Src/stm32f4xx_hal_adc_ex.c ****                       HAL_ADC_STATE_INJ_BUSY);
 182:Drivers/STM32F4xx_HAL_Driver/Src/stm32f4xx_hal_adc_ex.c **** 
 183:Drivers/STM32F4xx_HAL_Driver/Src/stm32f4xx_hal_adc_ex.c ****     /* Check if a regular conversion is ongoing */
 184:Drivers/STM32F4xx_HAL_Driver/Src/stm32f4xx_hal_adc_ex.c ****     /* Note: On this device, there is no ADC error code fields related to     */
 185:Drivers/STM32F4xx_HAL_Driver/Src/stm32f4xx_hal_adc_ex.c ****     /*       conversions on group injected only. In case of conversion on     */
 186:Drivers/STM32F4xx_HAL_Driver/Src/stm32f4xx_hal_adc_ex.c ****     /*       going on group regular, no error code is reset.                  */
 187:Drivers/STM32F4xx_HAL_Driver/Src/stm32f4xx_hal_adc_ex.c ****     if (HAL_IS_BIT_CLR(hadc->State, HAL_ADC_STATE_REG_BUSY))
 126              		.loc 1 187 9
 127 008c 7B68     		ldr	r3, [r7, #4]
 128 008e 1B6C     		ldr	r3, [r3, #64]
 129 0090 03F48073 		and	r3, r3, #256
 130              		.loc 1 187 8
 131 0094 002B     		cmp	r3, #0
 132 0096 02D1     		bne	.L8
 188:Drivers/STM32F4xx_HAL_Driver/Src/stm32f4xx_hal_adc_ex.c ****     {
 189:Drivers/STM32F4xx_HAL_Driver/Src/stm32f4xx_hal_adc_ex.c ****       /* Reset ADC all error code fields */
 190:Drivers/STM32F4xx_HAL_Driver/Src/stm32f4xx_hal_adc_ex.c ****       ADC_CLEAR_ERRORCODE(hadc);
 133              		.loc 1 190 7
 134 0098 7B68     		ldr	r3, [r7, #4]
 135 009a 0022     		movs	r2, #0
 136 009c 5A64     		str	r2, [r3, #68]
 137              	.L8:
 191:Drivers/STM32F4xx_HAL_Driver/Src/stm32f4xx_hal_adc_ex.c ****     }
 192:Drivers/STM32F4xx_HAL_Driver/Src/stm32f4xx_hal_adc_ex.c **** 
 193:Drivers/STM32F4xx_HAL_Driver/Src/stm32f4xx_hal_adc_ex.c ****     /* Process unlocked */
 194:Drivers/STM32F4xx_HAL_Driver/Src/stm32f4xx_hal_adc_ex.c ****     /* Unlock before starting ADC conversions: in case of potential           */
 195:Drivers/STM32F4xx_HAL_Driver/Src/stm32f4xx_hal_adc_ex.c ****     /* interruption, to let the process to ADC IRQ Handler.                   */
 196:Drivers/STM32F4xx_HAL_Driver/Src/stm32f4xx_hal_adc_ex.c ****     __HAL_UNLOCK(hadc);
 138              		.loc 1 196 5
 139 009e 7B68     		ldr	r3, [r7, #4]
 140 00a0 0022     		movs	r2, #0
 141 00a2 83F83C20 		strb	r2, [r3, #60]
 197:Drivers/STM32F4xx_HAL_Driver/Src/stm32f4xx_hal_adc_ex.c **** 
 198:Drivers/STM32F4xx_HAL_Driver/Src/stm32f4xx_hal_adc_ex.c ****     /* Clear injected group conversion flag */
 199:Drivers/STM32F4xx_HAL_Driver/Src/stm32f4xx_hal_adc_ex.c ****     /* (To ensure of no unknown state from potential previous ADC operations) */
 200:Drivers/STM32F4xx_HAL_Driver/Src/stm32f4xx_hal_adc_ex.c ****     __HAL_ADC_CLEAR_FLAG(hadc, ADC_FLAG_JEOC);
 142              		.loc 1 200 5
ARM GAS  C:\Users\mauro\AppData\Local\Temp\cczNnVbS.s 			page 7


 143 00a6 7B68     		ldr	r3, [r7, #4]
 144 00a8 1B68     		ldr	r3, [r3]
 145 00aa 6FF00402 		mvn	r2, #4
 146 00ae 1A60     		str	r2, [r3]
 201:Drivers/STM32F4xx_HAL_Driver/Src/stm32f4xx_hal_adc_ex.c **** 
 202:Drivers/STM32F4xx_HAL_Driver/Src/stm32f4xx_hal_adc_ex.c ****     /* Pointer to the common control register to which is belonging hadc    */
 203:Drivers/STM32F4xx_HAL_Driver/Src/stm32f4xx_hal_adc_ex.c ****     /* (Depending on STM32F4 product, there may be up to 3 ADC and 1 common */
 204:Drivers/STM32F4xx_HAL_Driver/Src/stm32f4xx_hal_adc_ex.c ****     /* control register)                                                    */
 205:Drivers/STM32F4xx_HAL_Driver/Src/stm32f4xx_hal_adc_ex.c ****     tmpADC_Common = ADC_COMMON_REGISTER(hadc);
 147              		.loc 1 205 19
 148 00b0 364B     		ldr	r3, .L11+8
 149 00b2 FB60     		str	r3, [r7, #12]
 206:Drivers/STM32F4xx_HAL_Driver/Src/stm32f4xx_hal_adc_ex.c **** 
 207:Drivers/STM32F4xx_HAL_Driver/Src/stm32f4xx_hal_adc_ex.c ****     /* Check if Multimode enabled */
 208:Drivers/STM32F4xx_HAL_Driver/Src/stm32f4xx_hal_adc_ex.c ****     if (HAL_IS_BIT_CLR(tmpADC_Common->CCR, ADC_CCR_MULTI))
 150              		.loc 1 208 9
 151 00b4 FB68     		ldr	r3, [r7, #12]
 152 00b6 5B68     		ldr	r3, [r3, #4]
 153 00b8 03F01F03 		and	r3, r3, #31
 154              		.loc 1 208 8
 155 00bc 002B     		cmp	r3, #0
 156 00be 24D1     		bne	.L9
 209:Drivers/STM32F4xx_HAL_Driver/Src/stm32f4xx_hal_adc_ex.c ****     {
 210:Drivers/STM32F4xx_HAL_Driver/Src/stm32f4xx_hal_adc_ex.c ****       tmp1 = HAL_IS_BIT_CLR(hadc->Instance->CR2, ADC_CR2_JEXTEN);
 157              		.loc 1 210 14
 158 00c0 7B68     		ldr	r3, [r7, #4]
 159 00c2 1B68     		ldr	r3, [r3]
 160 00c4 9B68     		ldr	r3, [r3, #8]
 161 00c6 03F44013 		and	r3, r3, #3145728
 162 00ca 002B     		cmp	r3, #0
 163 00cc 0CBF     		ite	eq
 164 00ce 0123     		moveq	r3, #1
 165 00d0 0023     		movne	r3, #0
 166 00d2 DBB2     		uxtb	r3, r3
 167              		.loc 1 210 12
 168 00d4 7B61     		str	r3, [r7, #20]
 211:Drivers/STM32F4xx_HAL_Driver/Src/stm32f4xx_hal_adc_ex.c ****       tmp2 = HAL_IS_BIT_CLR(hadc->Instance->CR1, ADC_CR1_JAUTO);
 169              		.loc 1 211 14
 170 00d6 7B68     		ldr	r3, [r7, #4]
 171 00d8 1B68     		ldr	r3, [r3]
 172 00da 5B68     		ldr	r3, [r3, #4]
 173 00dc 03F48063 		and	r3, r3, #1024
 174 00e0 002B     		cmp	r3, #0
 175 00e2 0CBF     		ite	eq
 176 00e4 0123     		moveq	r3, #1
 177 00e6 0023     		movne	r3, #0
 178 00e8 DBB2     		uxtb	r3, r3
 179              		.loc 1 211 12
 180 00ea 3B61     		str	r3, [r7, #16]
 212:Drivers/STM32F4xx_HAL_Driver/Src/stm32f4xx_hal_adc_ex.c ****       if (tmp1 && tmp2)
 181              		.loc 1 212 10
 182 00ec 7B69     		ldr	r3, [r7, #20]
 183 00ee 002B     		cmp	r3, #0
 184 00f0 41D0     		beq	.L10
 185              		.loc 1 212 16 discriminator 1
 186 00f2 3B69     		ldr	r3, [r7, #16]
 187 00f4 002B     		cmp	r3, #0
ARM GAS  C:\Users\mauro\AppData\Local\Temp\cczNnVbS.s 			page 8


 188 00f6 3ED0     		beq	.L10
 213:Drivers/STM32F4xx_HAL_Driver/Src/stm32f4xx_hal_adc_ex.c ****       {
 214:Drivers/STM32F4xx_HAL_Driver/Src/stm32f4xx_hal_adc_ex.c ****         /* Enable the selected ADC software conversion for injected group */
 215:Drivers/STM32F4xx_HAL_Driver/Src/stm32f4xx_hal_adc_ex.c ****         hadc->Instance->CR2 |= ADC_CR2_JSWSTART;
 189              		.loc 1 215 13
 190 00f8 7B68     		ldr	r3, [r7, #4]
 191 00fa 1B68     		ldr	r3, [r3]
 192              		.loc 1 215 29
 193 00fc 9A68     		ldr	r2, [r3, #8]
 194              		.loc 1 215 13
 195 00fe 7B68     		ldr	r3, [r7, #4]
 196 0100 1B68     		ldr	r3, [r3]
 197              		.loc 1 215 29
 198 0102 42F48002 		orr	r2, r2, #4194304
 199 0106 9A60     		str	r2, [r3, #8]
 200 0108 35E0     		b	.L10
 201              	.L9:
 216:Drivers/STM32F4xx_HAL_Driver/Src/stm32f4xx_hal_adc_ex.c ****       }
 217:Drivers/STM32F4xx_HAL_Driver/Src/stm32f4xx_hal_adc_ex.c ****     }
 218:Drivers/STM32F4xx_HAL_Driver/Src/stm32f4xx_hal_adc_ex.c ****     else
 219:Drivers/STM32F4xx_HAL_Driver/Src/stm32f4xx_hal_adc_ex.c ****     {
 220:Drivers/STM32F4xx_HAL_Driver/Src/stm32f4xx_hal_adc_ex.c ****       tmp1 = HAL_IS_BIT_CLR(hadc->Instance->CR2, ADC_CR2_JEXTEN);
 202              		.loc 1 220 14
 203 010a 7B68     		ldr	r3, [r7, #4]
 204 010c 1B68     		ldr	r3, [r3]
 205 010e 9B68     		ldr	r3, [r3, #8]
 206 0110 03F44013 		and	r3, r3, #3145728
 207 0114 002B     		cmp	r3, #0
 208 0116 0CBF     		ite	eq
 209 0118 0123     		moveq	r3, #1
 210 011a 0023     		movne	r3, #0
 211 011c DBB2     		uxtb	r3, r3
 212              		.loc 1 220 12
 213 011e 7B61     		str	r3, [r7, #20]
 221:Drivers/STM32F4xx_HAL_Driver/Src/stm32f4xx_hal_adc_ex.c ****       tmp2 = HAL_IS_BIT_CLR(hadc->Instance->CR1, ADC_CR1_JAUTO);
 214              		.loc 1 221 14
 215 0120 7B68     		ldr	r3, [r7, #4]
 216 0122 1B68     		ldr	r3, [r3]
 217 0124 5B68     		ldr	r3, [r3, #4]
 218 0126 03F48063 		and	r3, r3, #1024
 219 012a 002B     		cmp	r3, #0
 220 012c 0CBF     		ite	eq
 221 012e 0123     		moveq	r3, #1
 222 0130 0023     		movne	r3, #0
 223 0132 DBB2     		uxtb	r3, r3
 224              		.loc 1 221 12
 225 0134 3B61     		str	r3, [r7, #16]
 222:Drivers/STM32F4xx_HAL_Driver/Src/stm32f4xx_hal_adc_ex.c ****       if ((hadc->Instance == ADC1) && tmp1 && tmp2)
 226              		.loc 1 222 16
 227 0136 7B68     		ldr	r3, [r7, #4]
 228 0138 1B68     		ldr	r3, [r3]
 229              		.loc 1 222 10
 230 013a 154A     		ldr	r2, .L11+12
 231 013c 9342     		cmp	r3, r2
 232 013e 1AD1     		bne	.L10
 233              		.loc 1 222 36 discriminator 1
 234 0140 7B69     		ldr	r3, [r7, #20]
ARM GAS  C:\Users\mauro\AppData\Local\Temp\cczNnVbS.s 			page 9


 235 0142 002B     		cmp	r3, #0
 236 0144 17D0     		beq	.L10
 237              		.loc 1 222 44 discriminator 2
 238 0146 3B69     		ldr	r3, [r7, #16]
 239 0148 002B     		cmp	r3, #0
 240 014a 14D0     		beq	.L10
 223:Drivers/STM32F4xx_HAL_Driver/Src/stm32f4xx_hal_adc_ex.c ****       {
 224:Drivers/STM32F4xx_HAL_Driver/Src/stm32f4xx_hal_adc_ex.c ****         /* Enable the selected ADC software conversion for injected group */
 225:Drivers/STM32F4xx_HAL_Driver/Src/stm32f4xx_hal_adc_ex.c ****         hadc->Instance->CR2 |= ADC_CR2_JSWSTART;
 241              		.loc 1 225 13
 242 014c 7B68     		ldr	r3, [r7, #4]
 243 014e 1B68     		ldr	r3, [r3]
 244              		.loc 1 225 29
 245 0150 9A68     		ldr	r2, [r3, #8]
 246              		.loc 1 225 13
 247 0152 7B68     		ldr	r3, [r7, #4]
 248 0154 1B68     		ldr	r3, [r3]
 249              		.loc 1 225 29
 250 0156 42F48002 		orr	r2, r2, #4194304
 251 015a 9A60     		str	r2, [r3, #8]
 252 015c 0BE0     		b	.L10
 253              	.L7:
 226:Drivers/STM32F4xx_HAL_Driver/Src/stm32f4xx_hal_adc_ex.c ****       }
 227:Drivers/STM32F4xx_HAL_Driver/Src/stm32f4xx_hal_adc_ex.c ****     }
 228:Drivers/STM32F4xx_HAL_Driver/Src/stm32f4xx_hal_adc_ex.c ****   }
 229:Drivers/STM32F4xx_HAL_Driver/Src/stm32f4xx_hal_adc_ex.c ****   else
 230:Drivers/STM32F4xx_HAL_Driver/Src/stm32f4xx_hal_adc_ex.c ****   {
 231:Drivers/STM32F4xx_HAL_Driver/Src/stm32f4xx_hal_adc_ex.c ****     /* Update ADC state machine to error */
 232:Drivers/STM32F4xx_HAL_Driver/Src/stm32f4xx_hal_adc_ex.c ****     SET_BIT(hadc->State, HAL_ADC_STATE_ERROR_INTERNAL);
 254              		.loc 1 232 5
 255 015e 7B68     		ldr	r3, [r7, #4]
 256 0160 1B6C     		ldr	r3, [r3, #64]
 257 0162 43F01002 		orr	r2, r3, #16
 258 0166 7B68     		ldr	r3, [r7, #4]
 259 0168 1A64     		str	r2, [r3, #64]
 233:Drivers/STM32F4xx_HAL_Driver/Src/stm32f4xx_hal_adc_ex.c **** 
 234:Drivers/STM32F4xx_HAL_Driver/Src/stm32f4xx_hal_adc_ex.c ****     /* Set ADC error code to ADC IP internal error */
 235:Drivers/STM32F4xx_HAL_Driver/Src/stm32f4xx_hal_adc_ex.c ****     SET_BIT(hadc->ErrorCode, HAL_ADC_ERROR_INTERNAL);
 260              		.loc 1 235 5
 261 016a 7B68     		ldr	r3, [r7, #4]
 262 016c 5B6C     		ldr	r3, [r3, #68]
 263 016e 43F00102 		orr	r2, r3, #1
 264 0172 7B68     		ldr	r3, [r7, #4]
 265 0174 5A64     		str	r2, [r3, #68]
 266              	.L10:
 236:Drivers/STM32F4xx_HAL_Driver/Src/stm32f4xx_hal_adc_ex.c ****   }
 237:Drivers/STM32F4xx_HAL_Driver/Src/stm32f4xx_hal_adc_ex.c **** 
 238:Drivers/STM32F4xx_HAL_Driver/Src/stm32f4xx_hal_adc_ex.c ****   /* Return function status */
 239:Drivers/STM32F4xx_HAL_Driver/Src/stm32f4xx_hal_adc_ex.c ****   return HAL_OK;
 267              		.loc 1 239 10
 268 0176 0023     		movs	r3, #0
 269              	.L3:
 240:Drivers/STM32F4xx_HAL_Driver/Src/stm32f4xx_hal_adc_ex.c **** }
 270              		.loc 1 240 1
 271 0178 1846     		mov	r0, r3
 272 017a 1C37     		adds	r7, r7, #28
 273              	.LCFI3:
ARM GAS  C:\Users\mauro\AppData\Local\Temp\cczNnVbS.s 			page 10


 274              		.cfi_def_cfa_offset 4
 275 017c BD46     		mov	sp, r7
 276              	.LCFI4:
 277              		.cfi_def_cfa_register 13
 278              		@ sp needed
 279 017e 5DF8047B 		ldr	r7, [sp], #4
 280              	.LCFI5:
 281              		.cfi_restore 7
 282              		.cfi_def_cfa_offset 0
 283 0182 7047     		bx	lr
 284              	.L12:
 285              		.align	2
 286              	.L11:
 287 0184 00000000 		.word	SystemCoreClock
 288 0188 83DE1B43 		.word	1125899907
 289 018c 00230140 		.word	1073816320
 290 0190 00200140 		.word	1073815552
 291              		.cfi_endproc
 292              	.LFE220:
 294              		.section	.text.HAL_ADCEx_InjectedStart_IT,"ax",%progbits
 295              		.align	1
 296              		.global	HAL_ADCEx_InjectedStart_IT
 297              		.syntax unified
 298              		.thumb
 299              		.thumb_func
 301              	HAL_ADCEx_InjectedStart_IT:
 302              	.LFB221:
 241:Drivers/STM32F4xx_HAL_Driver/Src/stm32f4xx_hal_adc_ex.c **** 
 242:Drivers/STM32F4xx_HAL_Driver/Src/stm32f4xx_hal_adc_ex.c **** /**
 243:Drivers/STM32F4xx_HAL_Driver/Src/stm32f4xx_hal_adc_ex.c ****   * @brief  Enables the interrupt and starts ADC conversion of injected channels.
 244:Drivers/STM32F4xx_HAL_Driver/Src/stm32f4xx_hal_adc_ex.c ****   * @param  hadc pointer to a ADC_HandleTypeDef structure that contains
 245:Drivers/STM32F4xx_HAL_Driver/Src/stm32f4xx_hal_adc_ex.c ****   *         the configuration information for the specified ADC.
 246:Drivers/STM32F4xx_HAL_Driver/Src/stm32f4xx_hal_adc_ex.c ****   *
 247:Drivers/STM32F4xx_HAL_Driver/Src/stm32f4xx_hal_adc_ex.c ****   * @retval HAL status.
 248:Drivers/STM32F4xx_HAL_Driver/Src/stm32f4xx_hal_adc_ex.c ****   */
 249:Drivers/STM32F4xx_HAL_Driver/Src/stm32f4xx_hal_adc_ex.c **** HAL_StatusTypeDef HAL_ADCEx_InjectedStart_IT(ADC_HandleTypeDef *hadc)
 250:Drivers/STM32F4xx_HAL_Driver/Src/stm32f4xx_hal_adc_ex.c **** {
 303              		.loc 1 250 1
 304              		.cfi_startproc
 305              		@ args = 0, pretend = 0, frame = 24
 306              		@ frame_needed = 1, uses_anonymous_args = 0
 307              		@ link register save eliminated.
 308 0000 80B4     		push	{r7}
 309              	.LCFI6:
 310              		.cfi_def_cfa_offset 4
 311              		.cfi_offset 7, -4
 312 0002 87B0     		sub	sp, sp, #28
 313              	.LCFI7:
 314              		.cfi_def_cfa_offset 32
 315 0004 00AF     		add	r7, sp, #0
 316              	.LCFI8:
 317              		.cfi_def_cfa_register 7
 318 0006 7860     		str	r0, [r7, #4]
 251:Drivers/STM32F4xx_HAL_Driver/Src/stm32f4xx_hal_adc_ex.c ****   __IO uint32_t counter = 0U;
 319              		.loc 1 251 17
 320 0008 0023     		movs	r3, #0
 321 000a BB60     		str	r3, [r7, #8]
ARM GAS  C:\Users\mauro\AppData\Local\Temp\cczNnVbS.s 			page 11


 252:Drivers/STM32F4xx_HAL_Driver/Src/stm32f4xx_hal_adc_ex.c ****   uint32_t tmp1 = 0U, tmp2 = 0U;
 322              		.loc 1 252 12
 323 000c 0023     		movs	r3, #0
 324 000e 7B61     		str	r3, [r7, #20]
 325              		.loc 1 252 23
 326 0010 0023     		movs	r3, #0
 327 0012 3B61     		str	r3, [r7, #16]
 253:Drivers/STM32F4xx_HAL_Driver/Src/stm32f4xx_hal_adc_ex.c ****   ADC_Common_TypeDef *tmpADC_Common;
 254:Drivers/STM32F4xx_HAL_Driver/Src/stm32f4xx_hal_adc_ex.c **** 
 255:Drivers/STM32F4xx_HAL_Driver/Src/stm32f4xx_hal_adc_ex.c ****   /* Process locked */
 256:Drivers/STM32F4xx_HAL_Driver/Src/stm32f4xx_hal_adc_ex.c ****   __HAL_LOCK(hadc);
 328              		.loc 1 256 3
 329 0014 7B68     		ldr	r3, [r7, #4]
 330 0016 93F83C30 		ldrb	r3, [r3, #60]	@ zero_extendqisi2
 331 001a 012B     		cmp	r3, #1
 332 001c 01D1     		bne	.L14
 333              		.loc 1 256 3 is_stmt 0 discriminator 1
 334 001e 0223     		movs	r3, #2
 335 0020 B2E0     		b	.L15
 336              	.L14:
 337              		.loc 1 256 3 discriminator 2
 338 0022 7B68     		ldr	r3, [r7, #4]
 339 0024 0122     		movs	r2, #1
 340 0026 83F83C20 		strb	r2, [r3, #60]
 257:Drivers/STM32F4xx_HAL_Driver/Src/stm32f4xx_hal_adc_ex.c **** 
 258:Drivers/STM32F4xx_HAL_Driver/Src/stm32f4xx_hal_adc_ex.c ****   /* Enable the ADC peripheral */
 259:Drivers/STM32F4xx_HAL_Driver/Src/stm32f4xx_hal_adc_ex.c **** 
 260:Drivers/STM32F4xx_HAL_Driver/Src/stm32f4xx_hal_adc_ex.c ****   /* Check if ADC peripheral is disabled in order to enable it and wait during
 261:Drivers/STM32F4xx_HAL_Driver/Src/stm32f4xx_hal_adc_ex.c ****      Tstab time the ADC's stabilization */
 262:Drivers/STM32F4xx_HAL_Driver/Src/stm32f4xx_hal_adc_ex.c ****   if ((hadc->Instance->CR2 & ADC_CR2_ADON) != ADC_CR2_ADON)
 341              		.loc 1 262 12 is_stmt 1 discriminator 2
 342 002a 7B68     		ldr	r3, [r7, #4]
 343 002c 1B68     		ldr	r3, [r3]
 344              		.loc 1 262 22 discriminator 2
 345 002e 9B68     		ldr	r3, [r3, #8]
 346              		.loc 1 262 28 discriminator 2
 347 0030 03F00103 		and	r3, r3, #1
 348              		.loc 1 262 6 discriminator 2
 349 0034 012B     		cmp	r3, #1
 350 0036 18D0     		beq	.L16
 263:Drivers/STM32F4xx_HAL_Driver/Src/stm32f4xx_hal_adc_ex.c ****   {
 264:Drivers/STM32F4xx_HAL_Driver/Src/stm32f4xx_hal_adc_ex.c ****     /* Enable the Peripheral */
 265:Drivers/STM32F4xx_HAL_Driver/Src/stm32f4xx_hal_adc_ex.c ****     __HAL_ADC_ENABLE(hadc);
 351              		.loc 1 265 5
 352 0038 7B68     		ldr	r3, [r7, #4]
 353 003a 1B68     		ldr	r3, [r3]
 354 003c 9A68     		ldr	r2, [r3, #8]
 355 003e 7B68     		ldr	r3, [r7, #4]
 356 0040 1B68     		ldr	r3, [r3]
 357 0042 42F00102 		orr	r2, r2, #1
 358 0046 9A60     		str	r2, [r3, #8]
 266:Drivers/STM32F4xx_HAL_Driver/Src/stm32f4xx_hal_adc_ex.c **** 
 267:Drivers/STM32F4xx_HAL_Driver/Src/stm32f4xx_hal_adc_ex.c ****     /* Delay for ADC stabilization time */
 268:Drivers/STM32F4xx_HAL_Driver/Src/stm32f4xx_hal_adc_ex.c ****     /* Compute number of CPU cycles to wait for */
 269:Drivers/STM32F4xx_HAL_Driver/Src/stm32f4xx_hal_adc_ex.c ****     counter = (ADC_STAB_DELAY_US * (SystemCoreClock / 1000000U));
 359              		.loc 1 269 53
 360 0048 524B     		ldr	r3, .L23
ARM GAS  C:\Users\mauro\AppData\Local\Temp\cczNnVbS.s 			page 12


 361 004a 1B68     		ldr	r3, [r3]
 362 004c 524A     		ldr	r2, .L23+4
 363 004e A2FB0323 		umull	r2, r3, r2, r3
 364 0052 9A0C     		lsrs	r2, r3, #18
 365              		.loc 1 269 34
 366 0054 1346     		mov	r3, r2
 367 0056 5B00     		lsls	r3, r3, #1
 368 0058 1344     		add	r3, r3, r2
 369              		.loc 1 269 13
 370 005a BB60     		str	r3, [r7, #8]
 270:Drivers/STM32F4xx_HAL_Driver/Src/stm32f4xx_hal_adc_ex.c ****     while (counter != 0U)
 371              		.loc 1 270 11
 372 005c 02E0     		b	.L17
 373              	.L18:
 271:Drivers/STM32F4xx_HAL_Driver/Src/stm32f4xx_hal_adc_ex.c ****     {
 272:Drivers/STM32F4xx_HAL_Driver/Src/stm32f4xx_hal_adc_ex.c ****       counter--;
 374              		.loc 1 272 14
 375 005e BB68     		ldr	r3, [r7, #8]
 376 0060 013B     		subs	r3, r3, #1
 377 0062 BB60     		str	r3, [r7, #8]
 378              	.L17:
 270:Drivers/STM32F4xx_HAL_Driver/Src/stm32f4xx_hal_adc_ex.c ****     while (counter != 0U)
 379              		.loc 1 270 20
 380 0064 BB68     		ldr	r3, [r7, #8]
 381 0066 002B     		cmp	r3, #0
 382 0068 F9D1     		bne	.L18
 383              	.L16:
 273:Drivers/STM32F4xx_HAL_Driver/Src/stm32f4xx_hal_adc_ex.c ****     }
 274:Drivers/STM32F4xx_HAL_Driver/Src/stm32f4xx_hal_adc_ex.c ****   }
 275:Drivers/STM32F4xx_HAL_Driver/Src/stm32f4xx_hal_adc_ex.c **** 
 276:Drivers/STM32F4xx_HAL_Driver/Src/stm32f4xx_hal_adc_ex.c ****   /* Start conversion if ADC is effectively enabled */
 277:Drivers/STM32F4xx_HAL_Driver/Src/stm32f4xx_hal_adc_ex.c ****   if (HAL_IS_BIT_SET(hadc->Instance->CR2, ADC_CR2_ADON))
 384              		.loc 1 277 7
 385 006a 7B68     		ldr	r3, [r7, #4]
 386 006c 1B68     		ldr	r3, [r3]
 387 006e 9B68     		ldr	r3, [r3, #8]
 388 0070 03F00103 		and	r3, r3, #1
 389              		.loc 1 277 6
 390 0074 012B     		cmp	r3, #1
 391 0076 7AD1     		bne	.L19
 278:Drivers/STM32F4xx_HAL_Driver/Src/stm32f4xx_hal_adc_ex.c ****   {
 279:Drivers/STM32F4xx_HAL_Driver/Src/stm32f4xx_hal_adc_ex.c ****     /* Set ADC state                                                          */
 280:Drivers/STM32F4xx_HAL_Driver/Src/stm32f4xx_hal_adc_ex.c ****     /* - Clear state bitfield related to injected group conversion results    */
 281:Drivers/STM32F4xx_HAL_Driver/Src/stm32f4xx_hal_adc_ex.c ****     /* - Set state bitfield related to injected operation                     */
 282:Drivers/STM32F4xx_HAL_Driver/Src/stm32f4xx_hal_adc_ex.c ****     ADC_STATE_CLR_SET(hadc->State,
 392              		.loc 1 282 5
 393 0078 7B68     		ldr	r3, [r7, #4]
 394 007a 1B6C     		ldr	r3, [r3, #64]
 395 007c 23F44053 		bic	r3, r3, #12288
 396 0080 23F00103 		bic	r3, r3, #1
 397 0084 43F48052 		orr	r2, r3, #4096
 398 0088 7B68     		ldr	r3, [r7, #4]
 399 008a 1A64     		str	r2, [r3, #64]
 283:Drivers/STM32F4xx_HAL_Driver/Src/stm32f4xx_hal_adc_ex.c ****                       HAL_ADC_STATE_READY | HAL_ADC_STATE_INJ_EOC,
 284:Drivers/STM32F4xx_HAL_Driver/Src/stm32f4xx_hal_adc_ex.c ****                       HAL_ADC_STATE_INJ_BUSY);
 285:Drivers/STM32F4xx_HAL_Driver/Src/stm32f4xx_hal_adc_ex.c **** 
 286:Drivers/STM32F4xx_HAL_Driver/Src/stm32f4xx_hal_adc_ex.c ****     /* Check if a regular conversion is ongoing */
ARM GAS  C:\Users\mauro\AppData\Local\Temp\cczNnVbS.s 			page 13


 287:Drivers/STM32F4xx_HAL_Driver/Src/stm32f4xx_hal_adc_ex.c ****     /* Note: On this device, there is no ADC error code fields related to     */
 288:Drivers/STM32F4xx_HAL_Driver/Src/stm32f4xx_hal_adc_ex.c ****     /*       conversions on group injected only. In case of conversion on     */
 289:Drivers/STM32F4xx_HAL_Driver/Src/stm32f4xx_hal_adc_ex.c ****     /*       going on group regular, no error code is reset.                  */
 290:Drivers/STM32F4xx_HAL_Driver/Src/stm32f4xx_hal_adc_ex.c ****     if (HAL_IS_BIT_CLR(hadc->State, HAL_ADC_STATE_REG_BUSY))
 400              		.loc 1 290 9
 401 008c 7B68     		ldr	r3, [r7, #4]
 402 008e 1B6C     		ldr	r3, [r3, #64]
 403 0090 03F48073 		and	r3, r3, #256
 404              		.loc 1 290 8
 405 0094 002B     		cmp	r3, #0
 406 0096 02D1     		bne	.L20
 291:Drivers/STM32F4xx_HAL_Driver/Src/stm32f4xx_hal_adc_ex.c ****     {
 292:Drivers/STM32F4xx_HAL_Driver/Src/stm32f4xx_hal_adc_ex.c ****       /* Reset ADC all error code fields */
 293:Drivers/STM32F4xx_HAL_Driver/Src/stm32f4xx_hal_adc_ex.c ****       ADC_CLEAR_ERRORCODE(hadc);
 407              		.loc 1 293 7
 408 0098 7B68     		ldr	r3, [r7, #4]
 409 009a 0022     		movs	r2, #0
 410 009c 5A64     		str	r2, [r3, #68]
 411              	.L20:
 294:Drivers/STM32F4xx_HAL_Driver/Src/stm32f4xx_hal_adc_ex.c ****     }
 295:Drivers/STM32F4xx_HAL_Driver/Src/stm32f4xx_hal_adc_ex.c **** 
 296:Drivers/STM32F4xx_HAL_Driver/Src/stm32f4xx_hal_adc_ex.c ****     /* Process unlocked */
 297:Drivers/STM32F4xx_HAL_Driver/Src/stm32f4xx_hal_adc_ex.c ****     /* Unlock before starting ADC conversions: in case of potential           */
 298:Drivers/STM32F4xx_HAL_Driver/Src/stm32f4xx_hal_adc_ex.c ****     /* interruption, to let the process to ADC IRQ Handler.                   */
 299:Drivers/STM32F4xx_HAL_Driver/Src/stm32f4xx_hal_adc_ex.c ****     __HAL_UNLOCK(hadc);
 412              		.loc 1 299 5
 413 009e 7B68     		ldr	r3, [r7, #4]
 414 00a0 0022     		movs	r2, #0
 415 00a2 83F83C20 		strb	r2, [r3, #60]
 300:Drivers/STM32F4xx_HAL_Driver/Src/stm32f4xx_hal_adc_ex.c **** 
 301:Drivers/STM32F4xx_HAL_Driver/Src/stm32f4xx_hal_adc_ex.c ****     /* Clear injected group conversion flag */
 302:Drivers/STM32F4xx_HAL_Driver/Src/stm32f4xx_hal_adc_ex.c ****     /* (To ensure of no unknown state from potential previous ADC operations) */
 303:Drivers/STM32F4xx_HAL_Driver/Src/stm32f4xx_hal_adc_ex.c ****     __HAL_ADC_CLEAR_FLAG(hadc, ADC_FLAG_JEOC);
 416              		.loc 1 303 5
 417 00a6 7B68     		ldr	r3, [r7, #4]
 418 00a8 1B68     		ldr	r3, [r3]
 419 00aa 6FF00402 		mvn	r2, #4
 420 00ae 1A60     		str	r2, [r3]
 304:Drivers/STM32F4xx_HAL_Driver/Src/stm32f4xx_hal_adc_ex.c **** 
 305:Drivers/STM32F4xx_HAL_Driver/Src/stm32f4xx_hal_adc_ex.c ****     /* Enable end of conversion interrupt for injected channels */
 306:Drivers/STM32F4xx_HAL_Driver/Src/stm32f4xx_hal_adc_ex.c ****     __HAL_ADC_ENABLE_IT(hadc, ADC_IT_JEOC);
 421              		.loc 1 306 5
 422 00b0 7B68     		ldr	r3, [r7, #4]
 423 00b2 1B68     		ldr	r3, [r3]
 424 00b4 5A68     		ldr	r2, [r3, #4]
 425 00b6 7B68     		ldr	r3, [r7, #4]
 426 00b8 1B68     		ldr	r3, [r3]
 427 00ba 42F08002 		orr	r2, r2, #128
 428 00be 5A60     		str	r2, [r3, #4]
 307:Drivers/STM32F4xx_HAL_Driver/Src/stm32f4xx_hal_adc_ex.c **** 
 308:Drivers/STM32F4xx_HAL_Driver/Src/stm32f4xx_hal_adc_ex.c ****     /* Pointer to the common control register to which is belonging hadc    */
 309:Drivers/STM32F4xx_HAL_Driver/Src/stm32f4xx_hal_adc_ex.c ****     /* (Depending on STM32F4 product, there may be up to 3 ADC and 1 common */
 310:Drivers/STM32F4xx_HAL_Driver/Src/stm32f4xx_hal_adc_ex.c ****     /* control register)                                                    */
 311:Drivers/STM32F4xx_HAL_Driver/Src/stm32f4xx_hal_adc_ex.c ****     tmpADC_Common = ADC_COMMON_REGISTER(hadc);
 429              		.loc 1 311 19
 430 00c0 364B     		ldr	r3, .L23+8
 431 00c2 FB60     		str	r3, [r7, #12]
ARM GAS  C:\Users\mauro\AppData\Local\Temp\cczNnVbS.s 			page 14


 312:Drivers/STM32F4xx_HAL_Driver/Src/stm32f4xx_hal_adc_ex.c **** 
 313:Drivers/STM32F4xx_HAL_Driver/Src/stm32f4xx_hal_adc_ex.c ****     /* Check if Multimode enabled */
 314:Drivers/STM32F4xx_HAL_Driver/Src/stm32f4xx_hal_adc_ex.c ****     if (HAL_IS_BIT_CLR(tmpADC_Common->CCR, ADC_CCR_MULTI))
 432              		.loc 1 314 9
 433 00c4 FB68     		ldr	r3, [r7, #12]
 434 00c6 5B68     		ldr	r3, [r3, #4]
 435 00c8 03F01F03 		and	r3, r3, #31
 436              		.loc 1 314 8
 437 00cc 002B     		cmp	r3, #0
 438 00ce 24D1     		bne	.L21
 315:Drivers/STM32F4xx_HAL_Driver/Src/stm32f4xx_hal_adc_ex.c ****     {
 316:Drivers/STM32F4xx_HAL_Driver/Src/stm32f4xx_hal_adc_ex.c ****       tmp1 = HAL_IS_BIT_CLR(hadc->Instance->CR2, ADC_CR2_JEXTEN);
 439              		.loc 1 316 14
 440 00d0 7B68     		ldr	r3, [r7, #4]
 441 00d2 1B68     		ldr	r3, [r3]
 442 00d4 9B68     		ldr	r3, [r3, #8]
 443 00d6 03F44013 		and	r3, r3, #3145728
 444 00da 002B     		cmp	r3, #0
 445 00dc 0CBF     		ite	eq
 446 00de 0123     		moveq	r3, #1
 447 00e0 0023     		movne	r3, #0
 448 00e2 DBB2     		uxtb	r3, r3
 449              		.loc 1 316 12
 450 00e4 7B61     		str	r3, [r7, #20]
 317:Drivers/STM32F4xx_HAL_Driver/Src/stm32f4xx_hal_adc_ex.c ****       tmp2 = HAL_IS_BIT_CLR(hadc->Instance->CR1, ADC_CR1_JAUTO);
 451              		.loc 1 317 14
 452 00e6 7B68     		ldr	r3, [r7, #4]
 453 00e8 1B68     		ldr	r3, [r3]
 454 00ea 5B68     		ldr	r3, [r3, #4]
 455 00ec 03F48063 		and	r3, r3, #1024
 456 00f0 002B     		cmp	r3, #0
 457 00f2 0CBF     		ite	eq
 458 00f4 0123     		moveq	r3, #1
 459 00f6 0023     		movne	r3, #0
 460 00f8 DBB2     		uxtb	r3, r3
 461              		.loc 1 317 12
 462 00fa 3B61     		str	r3, [r7, #16]
 318:Drivers/STM32F4xx_HAL_Driver/Src/stm32f4xx_hal_adc_ex.c ****       if (tmp1 && tmp2)
 463              		.loc 1 318 10
 464 00fc 7B69     		ldr	r3, [r7, #20]
 465 00fe 002B     		cmp	r3, #0
 466 0100 41D0     		beq	.L22
 467              		.loc 1 318 16 discriminator 1
 468 0102 3B69     		ldr	r3, [r7, #16]
 469 0104 002B     		cmp	r3, #0
 470 0106 3ED0     		beq	.L22
 319:Drivers/STM32F4xx_HAL_Driver/Src/stm32f4xx_hal_adc_ex.c ****       {
 320:Drivers/STM32F4xx_HAL_Driver/Src/stm32f4xx_hal_adc_ex.c ****         /* Enable the selected ADC software conversion for injected group */
 321:Drivers/STM32F4xx_HAL_Driver/Src/stm32f4xx_hal_adc_ex.c ****         hadc->Instance->CR2 |= ADC_CR2_JSWSTART;
 471              		.loc 1 321 13
 472 0108 7B68     		ldr	r3, [r7, #4]
 473 010a 1B68     		ldr	r3, [r3]
 474              		.loc 1 321 29
 475 010c 9A68     		ldr	r2, [r3, #8]
 476              		.loc 1 321 13
 477 010e 7B68     		ldr	r3, [r7, #4]
 478 0110 1B68     		ldr	r3, [r3]
ARM GAS  C:\Users\mauro\AppData\Local\Temp\cczNnVbS.s 			page 15


 479              		.loc 1 321 29
 480 0112 42F48002 		orr	r2, r2, #4194304
 481 0116 9A60     		str	r2, [r3, #8]
 482 0118 35E0     		b	.L22
 483              	.L21:
 322:Drivers/STM32F4xx_HAL_Driver/Src/stm32f4xx_hal_adc_ex.c ****       }
 323:Drivers/STM32F4xx_HAL_Driver/Src/stm32f4xx_hal_adc_ex.c ****     }
 324:Drivers/STM32F4xx_HAL_Driver/Src/stm32f4xx_hal_adc_ex.c ****     else
 325:Drivers/STM32F4xx_HAL_Driver/Src/stm32f4xx_hal_adc_ex.c ****     {
 326:Drivers/STM32F4xx_HAL_Driver/Src/stm32f4xx_hal_adc_ex.c ****       tmp1 = HAL_IS_BIT_CLR(hadc->Instance->CR2, ADC_CR2_JEXTEN);
 484              		.loc 1 326 14
 485 011a 7B68     		ldr	r3, [r7, #4]
 486 011c 1B68     		ldr	r3, [r3]
 487 011e 9B68     		ldr	r3, [r3, #8]
 488 0120 03F44013 		and	r3, r3, #3145728
 489 0124 002B     		cmp	r3, #0
 490 0126 0CBF     		ite	eq
 491 0128 0123     		moveq	r3, #1
 492 012a 0023     		movne	r3, #0
 493 012c DBB2     		uxtb	r3, r3
 494              		.loc 1 326 12
 495 012e 7B61     		str	r3, [r7, #20]
 327:Drivers/STM32F4xx_HAL_Driver/Src/stm32f4xx_hal_adc_ex.c ****       tmp2 = HAL_IS_BIT_CLR(hadc->Instance->CR1, ADC_CR1_JAUTO);
 496              		.loc 1 327 14
 497 0130 7B68     		ldr	r3, [r7, #4]
 498 0132 1B68     		ldr	r3, [r3]
 499 0134 5B68     		ldr	r3, [r3, #4]
 500 0136 03F48063 		and	r3, r3, #1024
 501 013a 002B     		cmp	r3, #0
 502 013c 0CBF     		ite	eq
 503 013e 0123     		moveq	r3, #1
 504 0140 0023     		movne	r3, #0
 505 0142 DBB2     		uxtb	r3, r3
 506              		.loc 1 327 12
 507 0144 3B61     		str	r3, [r7, #16]
 328:Drivers/STM32F4xx_HAL_Driver/Src/stm32f4xx_hal_adc_ex.c ****       if ((hadc->Instance == ADC1) && tmp1 && tmp2)
 508              		.loc 1 328 16
 509 0146 7B68     		ldr	r3, [r7, #4]
 510 0148 1B68     		ldr	r3, [r3]
 511              		.loc 1 328 10
 512 014a 154A     		ldr	r2, .L23+12
 513 014c 9342     		cmp	r3, r2
 514 014e 1AD1     		bne	.L22
 515              		.loc 1 328 36 discriminator 1
 516 0150 7B69     		ldr	r3, [r7, #20]
 517 0152 002B     		cmp	r3, #0
 518 0154 17D0     		beq	.L22
 519              		.loc 1 328 44 discriminator 2
 520 0156 3B69     		ldr	r3, [r7, #16]
 521 0158 002B     		cmp	r3, #0
 522 015a 14D0     		beq	.L22
 329:Drivers/STM32F4xx_HAL_Driver/Src/stm32f4xx_hal_adc_ex.c ****       {
 330:Drivers/STM32F4xx_HAL_Driver/Src/stm32f4xx_hal_adc_ex.c ****         /* Enable the selected ADC software conversion for injected group */
 331:Drivers/STM32F4xx_HAL_Driver/Src/stm32f4xx_hal_adc_ex.c ****         hadc->Instance->CR2 |= ADC_CR2_JSWSTART;
 523              		.loc 1 331 13
 524 015c 7B68     		ldr	r3, [r7, #4]
 525 015e 1B68     		ldr	r3, [r3]
ARM GAS  C:\Users\mauro\AppData\Local\Temp\cczNnVbS.s 			page 16


 526              		.loc 1 331 29
 527 0160 9A68     		ldr	r2, [r3, #8]
 528              		.loc 1 331 13
 529 0162 7B68     		ldr	r3, [r7, #4]
 530 0164 1B68     		ldr	r3, [r3]
 531              		.loc 1 331 29
 532 0166 42F48002 		orr	r2, r2, #4194304
 533 016a 9A60     		str	r2, [r3, #8]
 534 016c 0BE0     		b	.L22
 535              	.L19:
 332:Drivers/STM32F4xx_HAL_Driver/Src/stm32f4xx_hal_adc_ex.c ****       }
 333:Drivers/STM32F4xx_HAL_Driver/Src/stm32f4xx_hal_adc_ex.c ****     }
 334:Drivers/STM32F4xx_HAL_Driver/Src/stm32f4xx_hal_adc_ex.c ****   }
 335:Drivers/STM32F4xx_HAL_Driver/Src/stm32f4xx_hal_adc_ex.c ****   else
 336:Drivers/STM32F4xx_HAL_Driver/Src/stm32f4xx_hal_adc_ex.c ****   {
 337:Drivers/STM32F4xx_HAL_Driver/Src/stm32f4xx_hal_adc_ex.c ****     /* Update ADC state machine to error */
 338:Drivers/STM32F4xx_HAL_Driver/Src/stm32f4xx_hal_adc_ex.c ****     SET_BIT(hadc->State, HAL_ADC_STATE_ERROR_INTERNAL);
 536              		.loc 1 338 5
 537 016e 7B68     		ldr	r3, [r7, #4]
 538 0170 1B6C     		ldr	r3, [r3, #64]
 539 0172 43F01002 		orr	r2, r3, #16
 540 0176 7B68     		ldr	r3, [r7, #4]
 541 0178 1A64     		str	r2, [r3, #64]
 339:Drivers/STM32F4xx_HAL_Driver/Src/stm32f4xx_hal_adc_ex.c **** 
 340:Drivers/STM32F4xx_HAL_Driver/Src/stm32f4xx_hal_adc_ex.c ****     /* Set ADC error code to ADC IP internal error */
 341:Drivers/STM32F4xx_HAL_Driver/Src/stm32f4xx_hal_adc_ex.c ****     SET_BIT(hadc->ErrorCode, HAL_ADC_ERROR_INTERNAL);
 542              		.loc 1 341 5
 543 017a 7B68     		ldr	r3, [r7, #4]
 544 017c 5B6C     		ldr	r3, [r3, #68]
 545 017e 43F00102 		orr	r2, r3, #1
 546 0182 7B68     		ldr	r3, [r7, #4]
 547 0184 5A64     		str	r2, [r3, #68]
 548              	.L22:
 342:Drivers/STM32F4xx_HAL_Driver/Src/stm32f4xx_hal_adc_ex.c ****   }
 343:Drivers/STM32F4xx_HAL_Driver/Src/stm32f4xx_hal_adc_ex.c **** 
 344:Drivers/STM32F4xx_HAL_Driver/Src/stm32f4xx_hal_adc_ex.c ****   /* Return function status */
 345:Drivers/STM32F4xx_HAL_Driver/Src/stm32f4xx_hal_adc_ex.c ****   return HAL_OK;
 549              		.loc 1 345 10
 550 0186 0023     		movs	r3, #0
 551              	.L15:
 346:Drivers/STM32F4xx_HAL_Driver/Src/stm32f4xx_hal_adc_ex.c **** }
 552              		.loc 1 346 1
 553 0188 1846     		mov	r0, r3
 554 018a 1C37     		adds	r7, r7, #28
 555              	.LCFI9:
 556              		.cfi_def_cfa_offset 4
 557 018c BD46     		mov	sp, r7
 558              	.LCFI10:
 559              		.cfi_def_cfa_register 13
 560              		@ sp needed
 561 018e 5DF8047B 		ldr	r7, [sp], #4
 562              	.LCFI11:
 563              		.cfi_restore 7
 564              		.cfi_def_cfa_offset 0
 565 0192 7047     		bx	lr
 566              	.L24:
 567              		.align	2
ARM GAS  C:\Users\mauro\AppData\Local\Temp\cczNnVbS.s 			page 17


 568              	.L23:
 569 0194 00000000 		.word	SystemCoreClock
 570 0198 83DE1B43 		.word	1125899907
 571 019c 00230140 		.word	1073816320
 572 01a0 00200140 		.word	1073815552
 573              		.cfi_endproc
 574              	.LFE221:
 576              		.section	.text.HAL_ADCEx_InjectedStop,"ax",%progbits
 577              		.align	1
 578              		.global	HAL_ADCEx_InjectedStop
 579              		.syntax unified
 580              		.thumb
 581              		.thumb_func
 583              	HAL_ADCEx_InjectedStop:
 584              	.LFB222:
 347:Drivers/STM32F4xx_HAL_Driver/Src/stm32f4xx_hal_adc_ex.c **** 
 348:Drivers/STM32F4xx_HAL_Driver/Src/stm32f4xx_hal_adc_ex.c **** /**
 349:Drivers/STM32F4xx_HAL_Driver/Src/stm32f4xx_hal_adc_ex.c ****   * @brief  Stop conversion of injected channels. Disable ADC peripheral if
 350:Drivers/STM32F4xx_HAL_Driver/Src/stm32f4xx_hal_adc_ex.c ****   *         no regular conversion is on going.
 351:Drivers/STM32F4xx_HAL_Driver/Src/stm32f4xx_hal_adc_ex.c ****   * @note   If ADC must be disabled and if conversion is on going on
 352:Drivers/STM32F4xx_HAL_Driver/Src/stm32f4xx_hal_adc_ex.c ****   *         regular group, function HAL_ADC_Stop must be used to stop both
 353:Drivers/STM32F4xx_HAL_Driver/Src/stm32f4xx_hal_adc_ex.c ****   *         injected and regular groups, and disable the ADC.
 354:Drivers/STM32F4xx_HAL_Driver/Src/stm32f4xx_hal_adc_ex.c ****   * @note   If injected group mode auto-injection is enabled,
 355:Drivers/STM32F4xx_HAL_Driver/Src/stm32f4xx_hal_adc_ex.c ****   *         function HAL_ADC_Stop must be used.
 356:Drivers/STM32F4xx_HAL_Driver/Src/stm32f4xx_hal_adc_ex.c ****   * @note   In case of auto-injection mode, HAL_ADC_Stop must be used.
 357:Drivers/STM32F4xx_HAL_Driver/Src/stm32f4xx_hal_adc_ex.c ****   * @param  hadc ADC handle
 358:Drivers/STM32F4xx_HAL_Driver/Src/stm32f4xx_hal_adc_ex.c ****   * @retval None
 359:Drivers/STM32F4xx_HAL_Driver/Src/stm32f4xx_hal_adc_ex.c ****   */
 360:Drivers/STM32F4xx_HAL_Driver/Src/stm32f4xx_hal_adc_ex.c **** HAL_StatusTypeDef HAL_ADCEx_InjectedStop(ADC_HandleTypeDef *hadc)
 361:Drivers/STM32F4xx_HAL_Driver/Src/stm32f4xx_hal_adc_ex.c **** {
 585              		.loc 1 361 1
 586              		.cfi_startproc
 587              		@ args = 0, pretend = 0, frame = 16
 588              		@ frame_needed = 1, uses_anonymous_args = 0
 589              		@ link register save eliminated.
 590 0000 80B4     		push	{r7}
 591              	.LCFI12:
 592              		.cfi_def_cfa_offset 4
 593              		.cfi_offset 7, -4
 594 0002 85B0     		sub	sp, sp, #20
 595              	.LCFI13:
 596              		.cfi_def_cfa_offset 24
 597 0004 00AF     		add	r7, sp, #0
 598              	.LCFI14:
 599              		.cfi_def_cfa_register 7
 600 0006 7860     		str	r0, [r7, #4]
 362:Drivers/STM32F4xx_HAL_Driver/Src/stm32f4xx_hal_adc_ex.c ****   HAL_StatusTypeDef tmp_hal_status = HAL_OK;
 601              		.loc 1 362 21
 602 0008 0023     		movs	r3, #0
 603 000a FB73     		strb	r3, [r7, #15]
 363:Drivers/STM32F4xx_HAL_Driver/Src/stm32f4xx_hal_adc_ex.c **** 
 364:Drivers/STM32F4xx_HAL_Driver/Src/stm32f4xx_hal_adc_ex.c ****   /* Check the parameters */
 365:Drivers/STM32F4xx_HAL_Driver/Src/stm32f4xx_hal_adc_ex.c ****   assert_param(IS_ADC_ALL_INSTANCE(hadc->Instance));
 366:Drivers/STM32F4xx_HAL_Driver/Src/stm32f4xx_hal_adc_ex.c **** 
 367:Drivers/STM32F4xx_HAL_Driver/Src/stm32f4xx_hal_adc_ex.c ****   /* Process locked */
 368:Drivers/STM32F4xx_HAL_Driver/Src/stm32f4xx_hal_adc_ex.c ****   __HAL_LOCK(hadc);
 604              		.loc 1 368 3
ARM GAS  C:\Users\mauro\AppData\Local\Temp\cczNnVbS.s 			page 18


 605 000c 7B68     		ldr	r3, [r7, #4]
 606 000e 93F83C30 		ldrb	r3, [r3, #60]	@ zero_extendqisi2
 607 0012 012B     		cmp	r3, #1
 608 0014 01D1     		bne	.L26
 609              		.loc 1 368 3 is_stmt 0 discriminator 1
 610 0016 0223     		movs	r3, #2
 611 0018 37E0     		b	.L27
 612              	.L26:
 613              		.loc 1 368 3 discriminator 2
 614 001a 7B68     		ldr	r3, [r7, #4]
 615 001c 0122     		movs	r2, #1
 616 001e 83F83C20 		strb	r2, [r3, #60]
 369:Drivers/STM32F4xx_HAL_Driver/Src/stm32f4xx_hal_adc_ex.c **** 
 370:Drivers/STM32F4xx_HAL_Driver/Src/stm32f4xx_hal_adc_ex.c ****   /* Stop potential conversion and disable ADC peripheral                     */
 371:Drivers/STM32F4xx_HAL_Driver/Src/stm32f4xx_hal_adc_ex.c ****   /* Conditioned to:                                                          */
 372:Drivers/STM32F4xx_HAL_Driver/Src/stm32f4xx_hal_adc_ex.c ****   /* - No conversion on the other group (regular group) is intended to        */
 373:Drivers/STM32F4xx_HAL_Driver/Src/stm32f4xx_hal_adc_ex.c ****   /*   continue (injected and regular groups stop conversion and ADC disable  */
 374:Drivers/STM32F4xx_HAL_Driver/Src/stm32f4xx_hal_adc_ex.c ****   /*   are common)                                                            */
 375:Drivers/STM32F4xx_HAL_Driver/Src/stm32f4xx_hal_adc_ex.c ****   /* - In case of auto-injection mode, HAL_ADC_Stop must be used.             */
 376:Drivers/STM32F4xx_HAL_Driver/Src/stm32f4xx_hal_adc_ex.c ****   if (((hadc->State & HAL_ADC_STATE_REG_BUSY) == RESET)  &&
 617              		.loc 1 376 13 is_stmt 1 discriminator 2
 618 0022 7B68     		ldr	r3, [r7, #4]
 619 0024 1B6C     		ldr	r3, [r3, #64]
 620              		.loc 1 376 21 discriminator 2
 621 0026 03F48073 		and	r3, r3, #256
 622              		.loc 1 376 6 discriminator 2
 623 002a 002B     		cmp	r3, #0
 624 002c 20D1     		bne	.L28
 377:Drivers/STM32F4xx_HAL_Driver/Src/stm32f4xx_hal_adc_ex.c ****       HAL_IS_BIT_CLR(hadc->Instance->CR1, ADC_CR1_JAUTO))
 625              		.loc 1 377 7 discriminator 1
 626 002e 7B68     		ldr	r3, [r7, #4]
 627 0030 1B68     		ldr	r3, [r3]
 628 0032 5B68     		ldr	r3, [r3, #4]
 629 0034 03F48063 		and	r3, r3, #1024
 376:Drivers/STM32F4xx_HAL_Driver/Src/stm32f4xx_hal_adc_ex.c ****       HAL_IS_BIT_CLR(hadc->Instance->CR1, ADC_CR1_JAUTO))
 630              		.loc 1 376 58 discriminator 1
 631 0038 002B     		cmp	r3, #0
 632 003a 19D1     		bne	.L28
 378:Drivers/STM32F4xx_HAL_Driver/Src/stm32f4xx_hal_adc_ex.c ****   {
 379:Drivers/STM32F4xx_HAL_Driver/Src/stm32f4xx_hal_adc_ex.c ****     /* Stop potential conversion on going, on regular and injected groups */
 380:Drivers/STM32F4xx_HAL_Driver/Src/stm32f4xx_hal_adc_ex.c ****     /* Disable ADC peripheral */
 381:Drivers/STM32F4xx_HAL_Driver/Src/stm32f4xx_hal_adc_ex.c ****     __HAL_ADC_DISABLE(hadc);
 633              		.loc 1 381 5
 634 003c 7B68     		ldr	r3, [r7, #4]
 635 003e 1B68     		ldr	r3, [r3]
 636 0040 9A68     		ldr	r2, [r3, #8]
 637 0042 7B68     		ldr	r3, [r7, #4]
 638 0044 1B68     		ldr	r3, [r3]
 639 0046 22F00102 		bic	r2, r2, #1
 640 004a 9A60     		str	r2, [r3, #8]
 382:Drivers/STM32F4xx_HAL_Driver/Src/stm32f4xx_hal_adc_ex.c **** 
 383:Drivers/STM32F4xx_HAL_Driver/Src/stm32f4xx_hal_adc_ex.c ****     /* Check if ADC is effectively disabled */
 384:Drivers/STM32F4xx_HAL_Driver/Src/stm32f4xx_hal_adc_ex.c ****     if (HAL_IS_BIT_CLR(hadc->Instance->CR2, ADC_CR2_ADON))
 641              		.loc 1 384 9
 642 004c 7B68     		ldr	r3, [r7, #4]
 643 004e 1B68     		ldr	r3, [r3]
 644 0050 9B68     		ldr	r3, [r3, #8]
ARM GAS  C:\Users\mauro\AppData\Local\Temp\cczNnVbS.s 			page 19


 645 0052 03F00103 		and	r3, r3, #1
 646              		.loc 1 384 8
 647 0056 002B     		cmp	r3, #0
 648 0058 12D1     		bne	.L30
 385:Drivers/STM32F4xx_HAL_Driver/Src/stm32f4xx_hal_adc_ex.c ****     {
 386:Drivers/STM32F4xx_HAL_Driver/Src/stm32f4xx_hal_adc_ex.c ****       /* Set ADC state */
 387:Drivers/STM32F4xx_HAL_Driver/Src/stm32f4xx_hal_adc_ex.c ****       ADC_STATE_CLR_SET(hadc->State,
 649              		.loc 1 387 7
 650 005a 7B68     		ldr	r3, [r7, #4]
 651 005c 1B6C     		ldr	r3, [r3, #64]
 652 005e 23F48853 		bic	r3, r3, #4352
 653 0062 23F00103 		bic	r3, r3, #1
 654 0066 43F00102 		orr	r2, r3, #1
 655 006a 7B68     		ldr	r3, [r7, #4]
 656 006c 1A64     		str	r2, [r3, #64]
 384:Drivers/STM32F4xx_HAL_Driver/Src/stm32f4xx_hal_adc_ex.c ****     {
 657              		.loc 1 384 8
 658 006e 07E0     		b	.L30
 659              	.L28:
 388:Drivers/STM32F4xx_HAL_Driver/Src/stm32f4xx_hal_adc_ex.c ****                         HAL_ADC_STATE_REG_BUSY | HAL_ADC_STATE_INJ_BUSY,
 389:Drivers/STM32F4xx_HAL_Driver/Src/stm32f4xx_hal_adc_ex.c ****                         HAL_ADC_STATE_READY);
 390:Drivers/STM32F4xx_HAL_Driver/Src/stm32f4xx_hal_adc_ex.c ****     }
 391:Drivers/STM32F4xx_HAL_Driver/Src/stm32f4xx_hal_adc_ex.c ****   }
 392:Drivers/STM32F4xx_HAL_Driver/Src/stm32f4xx_hal_adc_ex.c ****   else
 393:Drivers/STM32F4xx_HAL_Driver/Src/stm32f4xx_hal_adc_ex.c ****   {
 394:Drivers/STM32F4xx_HAL_Driver/Src/stm32f4xx_hal_adc_ex.c ****     /* Update ADC state machine to error */
 395:Drivers/STM32F4xx_HAL_Driver/Src/stm32f4xx_hal_adc_ex.c ****     SET_BIT(hadc->State, HAL_ADC_STATE_ERROR_CONFIG);
 660              		.loc 1 395 5
 661 0070 7B68     		ldr	r3, [r7, #4]
 662 0072 1B6C     		ldr	r3, [r3, #64]
 663 0074 43F02002 		orr	r2, r3, #32
 664 0078 7B68     		ldr	r3, [r7, #4]
 665 007a 1A64     		str	r2, [r3, #64]
 396:Drivers/STM32F4xx_HAL_Driver/Src/stm32f4xx_hal_adc_ex.c **** 
 397:Drivers/STM32F4xx_HAL_Driver/Src/stm32f4xx_hal_adc_ex.c ****     tmp_hal_status = HAL_ERROR;
 666              		.loc 1 397 20
 667 007c 0123     		movs	r3, #1
 668 007e FB73     		strb	r3, [r7, #15]
 669              	.L30:
 398:Drivers/STM32F4xx_HAL_Driver/Src/stm32f4xx_hal_adc_ex.c ****   }
 399:Drivers/STM32F4xx_HAL_Driver/Src/stm32f4xx_hal_adc_ex.c **** 
 400:Drivers/STM32F4xx_HAL_Driver/Src/stm32f4xx_hal_adc_ex.c ****   /* Process unlocked */
 401:Drivers/STM32F4xx_HAL_Driver/Src/stm32f4xx_hal_adc_ex.c ****   __HAL_UNLOCK(hadc);
 670              		.loc 1 401 3
 671 0080 7B68     		ldr	r3, [r7, #4]
 672 0082 0022     		movs	r2, #0
 673 0084 83F83C20 		strb	r2, [r3, #60]
 402:Drivers/STM32F4xx_HAL_Driver/Src/stm32f4xx_hal_adc_ex.c **** 
 403:Drivers/STM32F4xx_HAL_Driver/Src/stm32f4xx_hal_adc_ex.c ****   /* Return function status */
 404:Drivers/STM32F4xx_HAL_Driver/Src/stm32f4xx_hal_adc_ex.c ****   return tmp_hal_status;
 674              		.loc 1 404 10
 675 0088 FB7B     		ldrb	r3, [r7, #15]	@ zero_extendqisi2
 676              	.L27:
 405:Drivers/STM32F4xx_HAL_Driver/Src/stm32f4xx_hal_adc_ex.c **** }
 677              		.loc 1 405 1
 678 008a 1846     		mov	r0, r3
 679 008c 1437     		adds	r7, r7, #20
ARM GAS  C:\Users\mauro\AppData\Local\Temp\cczNnVbS.s 			page 20


 680              	.LCFI15:
 681              		.cfi_def_cfa_offset 4
 682 008e BD46     		mov	sp, r7
 683              	.LCFI16:
 684              		.cfi_def_cfa_register 13
 685              		@ sp needed
 686 0090 5DF8047B 		ldr	r7, [sp], #4
 687              	.LCFI17:
 688              		.cfi_restore 7
 689              		.cfi_def_cfa_offset 0
 690 0094 7047     		bx	lr
 691              		.cfi_endproc
 692              	.LFE222:
 694              		.section	.text.HAL_ADCEx_InjectedPollForConversion,"ax",%progbits
 695              		.align	1
 696              		.global	HAL_ADCEx_InjectedPollForConversion
 697              		.syntax unified
 698              		.thumb
 699              		.thumb_func
 701              	HAL_ADCEx_InjectedPollForConversion:
 702              	.LFB223:
 406:Drivers/STM32F4xx_HAL_Driver/Src/stm32f4xx_hal_adc_ex.c **** 
 407:Drivers/STM32F4xx_HAL_Driver/Src/stm32f4xx_hal_adc_ex.c **** /**
 408:Drivers/STM32F4xx_HAL_Driver/Src/stm32f4xx_hal_adc_ex.c ****   * @brief  Poll for injected conversion complete
 409:Drivers/STM32F4xx_HAL_Driver/Src/stm32f4xx_hal_adc_ex.c ****   * @param  hadc pointer to a ADC_HandleTypeDef structure that contains
 410:Drivers/STM32F4xx_HAL_Driver/Src/stm32f4xx_hal_adc_ex.c ****   *         the configuration information for the specified ADC.
 411:Drivers/STM32F4xx_HAL_Driver/Src/stm32f4xx_hal_adc_ex.c ****   * @param  Timeout Timeout value in millisecond.
 412:Drivers/STM32F4xx_HAL_Driver/Src/stm32f4xx_hal_adc_ex.c ****   * @retval HAL status
 413:Drivers/STM32F4xx_HAL_Driver/Src/stm32f4xx_hal_adc_ex.c ****   */
 414:Drivers/STM32F4xx_HAL_Driver/Src/stm32f4xx_hal_adc_ex.c **** HAL_StatusTypeDef HAL_ADCEx_InjectedPollForConversion(ADC_HandleTypeDef *hadc, uint32_t Timeout)
 415:Drivers/STM32F4xx_HAL_Driver/Src/stm32f4xx_hal_adc_ex.c **** {
 703              		.loc 1 415 1
 704              		.cfi_startproc
 705              		@ args = 0, pretend = 0, frame = 16
 706              		@ frame_needed = 1, uses_anonymous_args = 0
 707 0000 80B5     		push	{r7, lr}
 708              	.LCFI18:
 709              		.cfi_def_cfa_offset 8
 710              		.cfi_offset 7, -8
 711              		.cfi_offset 14, -4
 712 0002 84B0     		sub	sp, sp, #16
 713              	.LCFI19:
 714              		.cfi_def_cfa_offset 24
 715 0004 00AF     		add	r7, sp, #0
 716              	.LCFI20:
 717              		.cfi_def_cfa_register 7
 718 0006 7860     		str	r0, [r7, #4]
 719 0008 3960     		str	r1, [r7]
 416:Drivers/STM32F4xx_HAL_Driver/Src/stm32f4xx_hal_adc_ex.c ****   uint32_t tickstart = 0U;
 720              		.loc 1 416 12
 721 000a 0023     		movs	r3, #0
 722 000c FB60     		str	r3, [r7, #12]
 417:Drivers/STM32F4xx_HAL_Driver/Src/stm32f4xx_hal_adc_ex.c **** 
 418:Drivers/STM32F4xx_HAL_Driver/Src/stm32f4xx_hal_adc_ex.c ****   /* Get tick */
 419:Drivers/STM32F4xx_HAL_Driver/Src/stm32f4xx_hal_adc_ex.c ****   tickstart = HAL_GetTick();
 723              		.loc 1 419 15
 724 000e FFF7FEFF 		bl	HAL_GetTick
ARM GAS  C:\Users\mauro\AppData\Local\Temp\cczNnVbS.s 			page 21


 725 0012 F860     		str	r0, [r7, #12]
 420:Drivers/STM32F4xx_HAL_Driver/Src/stm32f4xx_hal_adc_ex.c **** 
 421:Drivers/STM32F4xx_HAL_Driver/Src/stm32f4xx_hal_adc_ex.c ****   /* Check End of conversion flag */
 422:Drivers/STM32F4xx_HAL_Driver/Src/stm32f4xx_hal_adc_ex.c ****   while (!(__HAL_ADC_GET_FLAG(hadc, ADC_FLAG_JEOC)))
 726              		.loc 1 422 9
 727 0014 1EE0     		b	.L32
 728              	.L35:
 423:Drivers/STM32F4xx_HAL_Driver/Src/stm32f4xx_hal_adc_ex.c ****   {
 424:Drivers/STM32F4xx_HAL_Driver/Src/stm32f4xx_hal_adc_ex.c ****     /* Check for the Timeout */
 425:Drivers/STM32F4xx_HAL_Driver/Src/stm32f4xx_hal_adc_ex.c ****     if (Timeout != HAL_MAX_DELAY)
 729              		.loc 1 425 8
 730 0016 3B68     		ldr	r3, [r7]
 731 0018 B3F1FF3F 		cmp	r3, #-1
 732 001c 1AD0     		beq	.L32
 426:Drivers/STM32F4xx_HAL_Driver/Src/stm32f4xx_hal_adc_ex.c ****     {
 427:Drivers/STM32F4xx_HAL_Driver/Src/stm32f4xx_hal_adc_ex.c ****       if ((Timeout == 0U) || ((HAL_GetTick() - tickstart) > Timeout))
 733              		.loc 1 427 10
 734 001e 3B68     		ldr	r3, [r7]
 735 0020 002B     		cmp	r3, #0
 736 0022 07D0     		beq	.L33
 737              		.loc 1 427 32 discriminator 1
 738 0024 FFF7FEFF 		bl	HAL_GetTick
 739 0028 0246     		mov	r2, r0
 740              		.loc 1 427 46 discriminator 1
 741 002a FB68     		ldr	r3, [r7, #12]
 742 002c D31A     		subs	r3, r2, r3
 743              		.loc 1 427 27 discriminator 1
 744 002e 3A68     		ldr	r2, [r7]
 745 0030 9A42     		cmp	r2, r3
 746 0032 0FD2     		bcs	.L32
 747              	.L33:
 428:Drivers/STM32F4xx_HAL_Driver/Src/stm32f4xx_hal_adc_ex.c ****       {
 429:Drivers/STM32F4xx_HAL_Driver/Src/stm32f4xx_hal_adc_ex.c ****         /* New check to avoid false timeout detection in case of preemption */
 430:Drivers/STM32F4xx_HAL_Driver/Src/stm32f4xx_hal_adc_ex.c ****         if (!(__HAL_ADC_GET_FLAG(hadc, ADC_FLAG_JEOC)))
 748              		.loc 1 430 15
 749 0034 7B68     		ldr	r3, [r7, #4]
 750 0036 1B68     		ldr	r3, [r3]
 751 0038 1B68     		ldr	r3, [r3]
 752 003a 03F00403 		and	r3, r3, #4
 753              		.loc 1 430 12
 754 003e 042B     		cmp	r3, #4
 755 0040 08D0     		beq	.L32
 431:Drivers/STM32F4xx_HAL_Driver/Src/stm32f4xx_hal_adc_ex.c ****         {
 432:Drivers/STM32F4xx_HAL_Driver/Src/stm32f4xx_hal_adc_ex.c ****           hadc->State = HAL_ADC_STATE_TIMEOUT;
 756              		.loc 1 432 23
 757 0042 7B68     		ldr	r3, [r7, #4]
 758 0044 0422     		movs	r2, #4
 759 0046 1A64     		str	r2, [r3, #64]
 433:Drivers/STM32F4xx_HAL_Driver/Src/stm32f4xx_hal_adc_ex.c ****           /* Process unlocked */
 434:Drivers/STM32F4xx_HAL_Driver/Src/stm32f4xx_hal_adc_ex.c ****           __HAL_UNLOCK(hadc);
 760              		.loc 1 434 11
 761 0048 7B68     		ldr	r3, [r7, #4]
 762 004a 0022     		movs	r2, #0
 763 004c 83F83C20 		strb	r2, [r3, #60]
 435:Drivers/STM32F4xx_HAL_Driver/Src/stm32f4xx_hal_adc_ex.c ****           return HAL_TIMEOUT;
 764              		.loc 1 435 18
 765 0050 0323     		movs	r3, #3
ARM GAS  C:\Users\mauro\AppData\Local\Temp\cczNnVbS.s 			page 22


 766 0052 4BE0     		b	.L34
 767              	.L32:
 422:Drivers/STM32F4xx_HAL_Driver/Src/stm32f4xx_hal_adc_ex.c ****   {
 768              		.loc 1 422 12
 769 0054 7B68     		ldr	r3, [r7, #4]
 770 0056 1B68     		ldr	r3, [r3]
 771 0058 1B68     		ldr	r3, [r3]
 772 005a 03F00403 		and	r3, r3, #4
 422:Drivers/STM32F4xx_HAL_Driver/Src/stm32f4xx_hal_adc_ex.c ****   {
 773              		.loc 1 422 10
 774 005e 042B     		cmp	r3, #4
 775 0060 D9D1     		bne	.L35
 436:Drivers/STM32F4xx_HAL_Driver/Src/stm32f4xx_hal_adc_ex.c ****         }
 437:Drivers/STM32F4xx_HAL_Driver/Src/stm32f4xx_hal_adc_ex.c ****       }
 438:Drivers/STM32F4xx_HAL_Driver/Src/stm32f4xx_hal_adc_ex.c ****     }
 439:Drivers/STM32F4xx_HAL_Driver/Src/stm32f4xx_hal_adc_ex.c ****   }
 440:Drivers/STM32F4xx_HAL_Driver/Src/stm32f4xx_hal_adc_ex.c **** 
 441:Drivers/STM32F4xx_HAL_Driver/Src/stm32f4xx_hal_adc_ex.c ****   /* Clear injected group conversion flag */
 442:Drivers/STM32F4xx_HAL_Driver/Src/stm32f4xx_hal_adc_ex.c ****   __HAL_ADC_CLEAR_FLAG(hadc, ADC_FLAG_JSTRT | ADC_FLAG_JEOC);
 776              		.loc 1 442 3
 777 0062 7B68     		ldr	r3, [r7, #4]
 778 0064 1B68     		ldr	r3, [r3]
 779 0066 6FF00C02 		mvn	r2, #12
 780 006a 1A60     		str	r2, [r3]
 443:Drivers/STM32F4xx_HAL_Driver/Src/stm32f4xx_hal_adc_ex.c **** 
 444:Drivers/STM32F4xx_HAL_Driver/Src/stm32f4xx_hal_adc_ex.c ****   /* Update ADC state machine */
 445:Drivers/STM32F4xx_HAL_Driver/Src/stm32f4xx_hal_adc_ex.c ****   SET_BIT(hadc->State, HAL_ADC_STATE_INJ_EOC);
 781              		.loc 1 445 3
 782 006c 7B68     		ldr	r3, [r7, #4]
 783 006e 1B6C     		ldr	r3, [r3, #64]
 784 0070 43F40052 		orr	r2, r3, #8192
 785 0074 7B68     		ldr	r3, [r7, #4]
 786 0076 1A64     		str	r2, [r3, #64]
 446:Drivers/STM32F4xx_HAL_Driver/Src/stm32f4xx_hal_adc_ex.c **** 
 447:Drivers/STM32F4xx_HAL_Driver/Src/stm32f4xx_hal_adc_ex.c ****   /* Determine whether any further conversion upcoming on group injected      */
 448:Drivers/STM32F4xx_HAL_Driver/Src/stm32f4xx_hal_adc_ex.c ****   /* by external trigger, continuous mode or scan sequence on going.          */
 449:Drivers/STM32F4xx_HAL_Driver/Src/stm32f4xx_hal_adc_ex.c ****   /* Note: On STM32F4, there is no independent flag of end of sequence.       */
 450:Drivers/STM32F4xx_HAL_Driver/Src/stm32f4xx_hal_adc_ex.c ****   /*       The test of scan sequence on going is done either with scan        */
 451:Drivers/STM32F4xx_HAL_Driver/Src/stm32f4xx_hal_adc_ex.c ****   /*       sequence disabled or with end of conversion flag set to            */
 452:Drivers/STM32F4xx_HAL_Driver/Src/stm32f4xx_hal_adc_ex.c ****   /*       of end of sequence.                                                */
 453:Drivers/STM32F4xx_HAL_Driver/Src/stm32f4xx_hal_adc_ex.c ****   if (ADC_IS_SOFTWARE_START_INJECTED(hadc)                    &&
 787              		.loc 1 453 7
 788 0078 7B68     		ldr	r3, [r7, #4]
 789 007a 1B68     		ldr	r3, [r3]
 790 007c 9B68     		ldr	r3, [r3, #8]
 791 007e 03F44013 		and	r3, r3, #3145728
 792              		.loc 1 453 6
 793 0082 002B     		cmp	r3, #0
 794 0084 31D1     		bne	.L36
 454:Drivers/STM32F4xx_HAL_Driver/Src/stm32f4xx_hal_adc_ex.c ****       (HAL_IS_BIT_CLR(hadc->Instance->JSQR, ADC_JSQR_JL)  ||
 795              		.loc 1 454 8 discriminator 1
 796 0086 7B68     		ldr	r3, [r7, #4]
 797 0088 1B68     		ldr	r3, [r3]
 798 008a 9B6B     		ldr	r3, [r3, #56]
 799 008c 03F44013 		and	r3, r3, #3145728
 453:Drivers/STM32F4xx_HAL_Driver/Src/stm32f4xx_hal_adc_ex.c ****       (HAL_IS_BIT_CLR(hadc->Instance->JSQR, ADC_JSQR_JL)  ||
 800              		.loc 1 453 63 discriminator 1
ARM GAS  C:\Users\mauro\AppData\Local\Temp\cczNnVbS.s 			page 23


 801 0090 002B     		cmp	r3, #0
 802 0092 06D0     		beq	.L37
 455:Drivers/STM32F4xx_HAL_Driver/Src/stm32f4xx_hal_adc_ex.c ****        HAL_IS_BIT_CLR(hadc->Instance->CR2, ADC_CR2_EOCS)) &&
 803              		.loc 1 455 8
 804 0094 7B68     		ldr	r3, [r7, #4]
 805 0096 1B68     		ldr	r3, [r3]
 806 0098 9B68     		ldr	r3, [r3, #8]
 807 009a 03F48063 		and	r3, r3, #1024
 454:Drivers/STM32F4xx_HAL_Driver/Src/stm32f4xx_hal_adc_ex.c ****       (HAL_IS_BIT_CLR(hadc->Instance->JSQR, ADC_JSQR_JL)  ||
 808              		.loc 1 454 59
 809 009e 002B     		cmp	r3, #0
 810 00a0 23D1     		bne	.L36
 811              	.L37:
 456:Drivers/STM32F4xx_HAL_Driver/Src/stm32f4xx_hal_adc_ex.c ****       (HAL_IS_BIT_CLR(hadc->Instance->CR1, ADC_CR1_JAUTO) &&
 812              		.loc 1 456 8
 813 00a2 7B68     		ldr	r3, [r7, #4]
 814 00a4 1B68     		ldr	r3, [r3]
 815 00a6 5B68     		ldr	r3, [r3, #4]
 816 00a8 03F48063 		and	r3, r3, #1024
 455:Drivers/STM32F4xx_HAL_Driver/Src/stm32f4xx_hal_adc_ex.c ****        HAL_IS_BIT_CLR(hadc->Instance->CR2, ADC_CR2_EOCS)) &&
 817              		.loc 1 455 59
 818 00ac 002B     		cmp	r3, #0
 819 00ae 1CD1     		bne	.L36
 457:Drivers/STM32F4xx_HAL_Driver/Src/stm32f4xx_hal_adc_ex.c ****        (ADC_IS_SOFTWARE_START_REGULAR(hadc)       &&
 820              		.loc 1 457 9
 821 00b0 7B68     		ldr	r3, [r7, #4]
 822 00b2 1B68     		ldr	r3, [r3]
 823 00b4 9B68     		ldr	r3, [r3, #8]
 824 00b6 03F04053 		and	r3, r3, #805306368
 456:Drivers/STM32F4xx_HAL_Driver/Src/stm32f4xx_hal_adc_ex.c ****       (HAL_IS_BIT_CLR(hadc->Instance->CR1, ADC_CR1_JAUTO) &&
 825              		.loc 1 456 59
 826 00ba 002B     		cmp	r3, #0
 827 00bc 15D1     		bne	.L36
 458:Drivers/STM32F4xx_HAL_Driver/Src/stm32f4xx_hal_adc_ex.c ****         (hadc->Init.ContinuousConvMode == DISABLE))))
 828              		.loc 1 458 20
 829 00be 7B68     		ldr	r3, [r7, #4]
 830 00c0 1B7E     		ldrb	r3, [r3, #24]	@ zero_extendqisi2
 457:Drivers/STM32F4xx_HAL_Driver/Src/stm32f4xx_hal_adc_ex.c ****        (ADC_IS_SOFTWARE_START_REGULAR(hadc)       &&
 831              		.loc 1 457 51
 832 00c2 002B     		cmp	r3, #0
 833 00c4 11D1     		bne	.L36
 459:Drivers/STM32F4xx_HAL_Driver/Src/stm32f4xx_hal_adc_ex.c ****   {
 460:Drivers/STM32F4xx_HAL_Driver/Src/stm32f4xx_hal_adc_ex.c ****     /* Set ADC state */
 461:Drivers/STM32F4xx_HAL_Driver/Src/stm32f4xx_hal_adc_ex.c ****     CLEAR_BIT(hadc->State, HAL_ADC_STATE_INJ_BUSY);
 834              		.loc 1 461 5
 835 00c6 7B68     		ldr	r3, [r7, #4]
 836 00c8 1B6C     		ldr	r3, [r3, #64]
 837 00ca 23F48052 		bic	r2, r3, #4096
 838 00ce 7B68     		ldr	r3, [r7, #4]
 839 00d0 1A64     		str	r2, [r3, #64]
 462:Drivers/STM32F4xx_HAL_Driver/Src/stm32f4xx_hal_adc_ex.c **** 
 463:Drivers/STM32F4xx_HAL_Driver/Src/stm32f4xx_hal_adc_ex.c ****     if (HAL_IS_BIT_CLR(hadc->State, HAL_ADC_STATE_REG_BUSY))
 840              		.loc 1 463 9
 841 00d2 7B68     		ldr	r3, [r7, #4]
 842 00d4 1B6C     		ldr	r3, [r3, #64]
 843 00d6 03F48073 		and	r3, r3, #256
 844              		.loc 1 463 8
ARM GAS  C:\Users\mauro\AppData\Local\Temp\cczNnVbS.s 			page 24


 845 00da 002B     		cmp	r3, #0
 846 00dc 05D1     		bne	.L36
 464:Drivers/STM32F4xx_HAL_Driver/Src/stm32f4xx_hal_adc_ex.c ****     {
 465:Drivers/STM32F4xx_HAL_Driver/Src/stm32f4xx_hal_adc_ex.c ****       SET_BIT(hadc->State, HAL_ADC_STATE_READY);
 847              		.loc 1 465 7
 848 00de 7B68     		ldr	r3, [r7, #4]
 849 00e0 1B6C     		ldr	r3, [r3, #64]
 850 00e2 43F00102 		orr	r2, r3, #1
 851 00e6 7B68     		ldr	r3, [r7, #4]
 852 00e8 1A64     		str	r2, [r3, #64]
 853              	.L36:
 466:Drivers/STM32F4xx_HAL_Driver/Src/stm32f4xx_hal_adc_ex.c ****     }
 467:Drivers/STM32F4xx_HAL_Driver/Src/stm32f4xx_hal_adc_ex.c ****   }
 468:Drivers/STM32F4xx_HAL_Driver/Src/stm32f4xx_hal_adc_ex.c **** 
 469:Drivers/STM32F4xx_HAL_Driver/Src/stm32f4xx_hal_adc_ex.c ****   /* Return ADC state */
 470:Drivers/STM32F4xx_HAL_Driver/Src/stm32f4xx_hal_adc_ex.c ****   return HAL_OK;
 854              		.loc 1 470 10
 855 00ea 0023     		movs	r3, #0
 856              	.L34:
 471:Drivers/STM32F4xx_HAL_Driver/Src/stm32f4xx_hal_adc_ex.c **** }
 857              		.loc 1 471 1
 858 00ec 1846     		mov	r0, r3
 859 00ee 1037     		adds	r7, r7, #16
 860              	.LCFI21:
 861              		.cfi_def_cfa_offset 8
 862 00f0 BD46     		mov	sp, r7
 863              	.LCFI22:
 864              		.cfi_def_cfa_register 13
 865              		@ sp needed
 866 00f2 80BD     		pop	{r7, pc}
 867              		.cfi_endproc
 868              	.LFE223:
 870              		.section	.text.HAL_ADCEx_InjectedStop_IT,"ax",%progbits
 871              		.align	1
 872              		.global	HAL_ADCEx_InjectedStop_IT
 873              		.syntax unified
 874              		.thumb
 875              		.thumb_func
 877              	HAL_ADCEx_InjectedStop_IT:
 878              	.LFB224:
 472:Drivers/STM32F4xx_HAL_Driver/Src/stm32f4xx_hal_adc_ex.c **** 
 473:Drivers/STM32F4xx_HAL_Driver/Src/stm32f4xx_hal_adc_ex.c **** /**
 474:Drivers/STM32F4xx_HAL_Driver/Src/stm32f4xx_hal_adc_ex.c ****   * @brief  Stop conversion of injected channels, disable interruption of
 475:Drivers/STM32F4xx_HAL_Driver/Src/stm32f4xx_hal_adc_ex.c ****   *         end-of-conversion. Disable ADC peripheral if no regular conversion
 476:Drivers/STM32F4xx_HAL_Driver/Src/stm32f4xx_hal_adc_ex.c ****   *         is on going.
 477:Drivers/STM32F4xx_HAL_Driver/Src/stm32f4xx_hal_adc_ex.c ****   * @note   If ADC must be disabled and if conversion is on going on
 478:Drivers/STM32F4xx_HAL_Driver/Src/stm32f4xx_hal_adc_ex.c ****   *         regular group, function HAL_ADC_Stop must be used to stop both
 479:Drivers/STM32F4xx_HAL_Driver/Src/stm32f4xx_hal_adc_ex.c ****   *         injected and regular groups, and disable the ADC.
 480:Drivers/STM32F4xx_HAL_Driver/Src/stm32f4xx_hal_adc_ex.c ****   * @note   If injected group mode auto-injection is enabled,
 481:Drivers/STM32F4xx_HAL_Driver/Src/stm32f4xx_hal_adc_ex.c ****   *         function HAL_ADC_Stop must be used.
 482:Drivers/STM32F4xx_HAL_Driver/Src/stm32f4xx_hal_adc_ex.c ****   * @param  hadc ADC handle
 483:Drivers/STM32F4xx_HAL_Driver/Src/stm32f4xx_hal_adc_ex.c ****   * @retval None
 484:Drivers/STM32F4xx_HAL_Driver/Src/stm32f4xx_hal_adc_ex.c ****   */
 485:Drivers/STM32F4xx_HAL_Driver/Src/stm32f4xx_hal_adc_ex.c **** HAL_StatusTypeDef HAL_ADCEx_InjectedStop_IT(ADC_HandleTypeDef *hadc)
 486:Drivers/STM32F4xx_HAL_Driver/Src/stm32f4xx_hal_adc_ex.c **** {
 879              		.loc 1 486 1
 880              		.cfi_startproc
ARM GAS  C:\Users\mauro\AppData\Local\Temp\cczNnVbS.s 			page 25


 881              		@ args = 0, pretend = 0, frame = 16
 882              		@ frame_needed = 1, uses_anonymous_args = 0
 883              		@ link register save eliminated.
 884 0000 80B4     		push	{r7}
 885              	.LCFI23:
 886              		.cfi_def_cfa_offset 4
 887              		.cfi_offset 7, -4
 888 0002 85B0     		sub	sp, sp, #20
 889              	.LCFI24:
 890              		.cfi_def_cfa_offset 24
 891 0004 00AF     		add	r7, sp, #0
 892              	.LCFI25:
 893              		.cfi_def_cfa_register 7
 894 0006 7860     		str	r0, [r7, #4]
 487:Drivers/STM32F4xx_HAL_Driver/Src/stm32f4xx_hal_adc_ex.c ****   HAL_StatusTypeDef tmp_hal_status = HAL_OK;
 895              		.loc 1 487 21
 896 0008 0023     		movs	r3, #0
 897 000a FB73     		strb	r3, [r7, #15]
 488:Drivers/STM32F4xx_HAL_Driver/Src/stm32f4xx_hal_adc_ex.c **** 
 489:Drivers/STM32F4xx_HAL_Driver/Src/stm32f4xx_hal_adc_ex.c ****   /* Check the parameters */
 490:Drivers/STM32F4xx_HAL_Driver/Src/stm32f4xx_hal_adc_ex.c ****   assert_param(IS_ADC_ALL_INSTANCE(hadc->Instance));
 491:Drivers/STM32F4xx_HAL_Driver/Src/stm32f4xx_hal_adc_ex.c **** 
 492:Drivers/STM32F4xx_HAL_Driver/Src/stm32f4xx_hal_adc_ex.c ****   /* Process locked */
 493:Drivers/STM32F4xx_HAL_Driver/Src/stm32f4xx_hal_adc_ex.c ****   __HAL_LOCK(hadc);
 898              		.loc 1 493 3
 899 000c 7B68     		ldr	r3, [r7, #4]
 900 000e 93F83C30 		ldrb	r3, [r3, #60]	@ zero_extendqisi2
 901 0012 012B     		cmp	r3, #1
 902 0014 01D1     		bne	.L39
 903              		.loc 1 493 3 is_stmt 0 discriminator 1
 904 0016 0223     		movs	r3, #2
 905 0018 3FE0     		b	.L40
 906              	.L39:
 907              		.loc 1 493 3 discriminator 2
 908 001a 7B68     		ldr	r3, [r7, #4]
 909 001c 0122     		movs	r2, #1
 910 001e 83F83C20 		strb	r2, [r3, #60]
 494:Drivers/STM32F4xx_HAL_Driver/Src/stm32f4xx_hal_adc_ex.c **** 
 495:Drivers/STM32F4xx_HAL_Driver/Src/stm32f4xx_hal_adc_ex.c ****   /* Stop potential conversion and disable ADC peripheral                     */
 496:Drivers/STM32F4xx_HAL_Driver/Src/stm32f4xx_hal_adc_ex.c ****   /* Conditioned to:                                                          */
 497:Drivers/STM32F4xx_HAL_Driver/Src/stm32f4xx_hal_adc_ex.c ****   /* - No conversion on the other group (regular group) is intended to        */
 498:Drivers/STM32F4xx_HAL_Driver/Src/stm32f4xx_hal_adc_ex.c ****   /*   continue (injected and regular groups stop conversion and ADC disable  */
 499:Drivers/STM32F4xx_HAL_Driver/Src/stm32f4xx_hal_adc_ex.c ****   /*   are common)                                                            */
 500:Drivers/STM32F4xx_HAL_Driver/Src/stm32f4xx_hal_adc_ex.c ****   /* - In case of auto-injection mode, HAL_ADC_Stop must be used.             */
 501:Drivers/STM32F4xx_HAL_Driver/Src/stm32f4xx_hal_adc_ex.c ****   if (((hadc->State & HAL_ADC_STATE_REG_BUSY) == RESET)  &&
 911              		.loc 1 501 13 is_stmt 1 discriminator 2
 912 0022 7B68     		ldr	r3, [r7, #4]
 913 0024 1B6C     		ldr	r3, [r3, #64]
 914              		.loc 1 501 21 discriminator 2
 915 0026 03F48073 		and	r3, r3, #256
 916              		.loc 1 501 6 discriminator 2
 917 002a 002B     		cmp	r3, #0
 918 002c 28D1     		bne	.L41
 502:Drivers/STM32F4xx_HAL_Driver/Src/stm32f4xx_hal_adc_ex.c ****       HAL_IS_BIT_CLR(hadc->Instance->CR1, ADC_CR1_JAUTO))
 919              		.loc 1 502 7 discriminator 1
 920 002e 7B68     		ldr	r3, [r7, #4]
 921 0030 1B68     		ldr	r3, [r3]
ARM GAS  C:\Users\mauro\AppData\Local\Temp\cczNnVbS.s 			page 26


 922 0032 5B68     		ldr	r3, [r3, #4]
 923 0034 03F48063 		and	r3, r3, #1024
 501:Drivers/STM32F4xx_HAL_Driver/Src/stm32f4xx_hal_adc_ex.c ****       HAL_IS_BIT_CLR(hadc->Instance->CR1, ADC_CR1_JAUTO))
 924              		.loc 1 501 58 discriminator 1
 925 0038 002B     		cmp	r3, #0
 926 003a 21D1     		bne	.L41
 503:Drivers/STM32F4xx_HAL_Driver/Src/stm32f4xx_hal_adc_ex.c ****   {
 504:Drivers/STM32F4xx_HAL_Driver/Src/stm32f4xx_hal_adc_ex.c ****     /* Stop potential conversion on going, on regular and injected groups */
 505:Drivers/STM32F4xx_HAL_Driver/Src/stm32f4xx_hal_adc_ex.c ****     /* Disable ADC peripheral */
 506:Drivers/STM32F4xx_HAL_Driver/Src/stm32f4xx_hal_adc_ex.c ****     __HAL_ADC_DISABLE(hadc);
 927              		.loc 1 506 5
 928 003c 7B68     		ldr	r3, [r7, #4]
 929 003e 1B68     		ldr	r3, [r3]
 930 0040 9A68     		ldr	r2, [r3, #8]
 931 0042 7B68     		ldr	r3, [r7, #4]
 932 0044 1B68     		ldr	r3, [r3]
 933 0046 22F00102 		bic	r2, r2, #1
 934 004a 9A60     		str	r2, [r3, #8]
 507:Drivers/STM32F4xx_HAL_Driver/Src/stm32f4xx_hal_adc_ex.c **** 
 508:Drivers/STM32F4xx_HAL_Driver/Src/stm32f4xx_hal_adc_ex.c ****     /* Check if ADC is effectively disabled */
 509:Drivers/STM32F4xx_HAL_Driver/Src/stm32f4xx_hal_adc_ex.c ****     if (HAL_IS_BIT_CLR(hadc->Instance->CR2, ADC_CR2_ADON))
 935              		.loc 1 509 9
 936 004c 7B68     		ldr	r3, [r7, #4]
 937 004e 1B68     		ldr	r3, [r3]
 938 0050 9B68     		ldr	r3, [r3, #8]
 939 0052 03F00103 		and	r3, r3, #1
 940              		.loc 1 509 8
 941 0056 002B     		cmp	r3, #0
 942 0058 1AD1     		bne	.L43
 510:Drivers/STM32F4xx_HAL_Driver/Src/stm32f4xx_hal_adc_ex.c ****     {
 511:Drivers/STM32F4xx_HAL_Driver/Src/stm32f4xx_hal_adc_ex.c ****       /* Disable ADC end of conversion interrupt for injected channels */
 512:Drivers/STM32F4xx_HAL_Driver/Src/stm32f4xx_hal_adc_ex.c ****       __HAL_ADC_DISABLE_IT(hadc, ADC_IT_JEOC);
 943              		.loc 1 512 7
 944 005a 7B68     		ldr	r3, [r7, #4]
 945 005c 1B68     		ldr	r3, [r3]
 946 005e 5A68     		ldr	r2, [r3, #4]
 947 0060 7B68     		ldr	r3, [r7, #4]
 948 0062 1B68     		ldr	r3, [r3]
 949 0064 22F08002 		bic	r2, r2, #128
 950 0068 5A60     		str	r2, [r3, #4]
 513:Drivers/STM32F4xx_HAL_Driver/Src/stm32f4xx_hal_adc_ex.c **** 
 514:Drivers/STM32F4xx_HAL_Driver/Src/stm32f4xx_hal_adc_ex.c ****       /* Set ADC state */
 515:Drivers/STM32F4xx_HAL_Driver/Src/stm32f4xx_hal_adc_ex.c ****       ADC_STATE_CLR_SET(hadc->State,
 951              		.loc 1 515 7
 952 006a 7B68     		ldr	r3, [r7, #4]
 953 006c 1B6C     		ldr	r3, [r3, #64]
 954 006e 23F48853 		bic	r3, r3, #4352
 955 0072 23F00103 		bic	r3, r3, #1
 956 0076 43F00102 		orr	r2, r3, #1
 957 007a 7B68     		ldr	r3, [r7, #4]
 958 007c 1A64     		str	r2, [r3, #64]
 509:Drivers/STM32F4xx_HAL_Driver/Src/stm32f4xx_hal_adc_ex.c ****     {
 959              		.loc 1 509 8
 960 007e 07E0     		b	.L43
 961              	.L41:
 516:Drivers/STM32F4xx_HAL_Driver/Src/stm32f4xx_hal_adc_ex.c ****                         HAL_ADC_STATE_REG_BUSY | HAL_ADC_STATE_INJ_BUSY,
 517:Drivers/STM32F4xx_HAL_Driver/Src/stm32f4xx_hal_adc_ex.c ****                         HAL_ADC_STATE_READY);
ARM GAS  C:\Users\mauro\AppData\Local\Temp\cczNnVbS.s 			page 27


 518:Drivers/STM32F4xx_HAL_Driver/Src/stm32f4xx_hal_adc_ex.c ****     }
 519:Drivers/STM32F4xx_HAL_Driver/Src/stm32f4xx_hal_adc_ex.c ****   }
 520:Drivers/STM32F4xx_HAL_Driver/Src/stm32f4xx_hal_adc_ex.c ****   else
 521:Drivers/STM32F4xx_HAL_Driver/Src/stm32f4xx_hal_adc_ex.c ****   {
 522:Drivers/STM32F4xx_HAL_Driver/Src/stm32f4xx_hal_adc_ex.c ****     /* Update ADC state machine to error */
 523:Drivers/STM32F4xx_HAL_Driver/Src/stm32f4xx_hal_adc_ex.c ****     SET_BIT(hadc->State, HAL_ADC_STATE_ERROR_CONFIG);
 962              		.loc 1 523 5
 963 0080 7B68     		ldr	r3, [r7, #4]
 964 0082 1B6C     		ldr	r3, [r3, #64]
 965 0084 43F02002 		orr	r2, r3, #32
 966 0088 7B68     		ldr	r3, [r7, #4]
 967 008a 1A64     		str	r2, [r3, #64]
 524:Drivers/STM32F4xx_HAL_Driver/Src/stm32f4xx_hal_adc_ex.c **** 
 525:Drivers/STM32F4xx_HAL_Driver/Src/stm32f4xx_hal_adc_ex.c ****     tmp_hal_status = HAL_ERROR;
 968              		.loc 1 525 20
 969 008c 0123     		movs	r3, #1
 970 008e FB73     		strb	r3, [r7, #15]
 971              	.L43:
 526:Drivers/STM32F4xx_HAL_Driver/Src/stm32f4xx_hal_adc_ex.c ****   }
 527:Drivers/STM32F4xx_HAL_Driver/Src/stm32f4xx_hal_adc_ex.c **** 
 528:Drivers/STM32F4xx_HAL_Driver/Src/stm32f4xx_hal_adc_ex.c ****   /* Process unlocked */
 529:Drivers/STM32F4xx_HAL_Driver/Src/stm32f4xx_hal_adc_ex.c ****   __HAL_UNLOCK(hadc);
 972              		.loc 1 529 3
 973 0090 7B68     		ldr	r3, [r7, #4]
 974 0092 0022     		movs	r2, #0
 975 0094 83F83C20 		strb	r2, [r3, #60]
 530:Drivers/STM32F4xx_HAL_Driver/Src/stm32f4xx_hal_adc_ex.c **** 
 531:Drivers/STM32F4xx_HAL_Driver/Src/stm32f4xx_hal_adc_ex.c ****   /* Return function status */
 532:Drivers/STM32F4xx_HAL_Driver/Src/stm32f4xx_hal_adc_ex.c ****   return tmp_hal_status;
 976              		.loc 1 532 10
 977 0098 FB7B     		ldrb	r3, [r7, #15]	@ zero_extendqisi2
 978              	.L40:
 533:Drivers/STM32F4xx_HAL_Driver/Src/stm32f4xx_hal_adc_ex.c **** }
 979              		.loc 1 533 1
 980 009a 1846     		mov	r0, r3
 981 009c 1437     		adds	r7, r7, #20
 982              	.LCFI26:
 983              		.cfi_def_cfa_offset 4
 984 009e BD46     		mov	sp, r7
 985              	.LCFI27:
 986              		.cfi_def_cfa_register 13
 987              		@ sp needed
 988 00a0 5DF8047B 		ldr	r7, [sp], #4
 989              	.LCFI28:
 990              		.cfi_restore 7
 991              		.cfi_def_cfa_offset 0
 992 00a4 7047     		bx	lr
 993              		.cfi_endproc
 994              	.LFE224:
 996              		.section	.text.HAL_ADCEx_InjectedGetValue,"ax",%progbits
 997              		.align	1
 998              		.global	HAL_ADCEx_InjectedGetValue
 999              		.syntax unified
 1000              		.thumb
 1001              		.thumb_func
 1003              	HAL_ADCEx_InjectedGetValue:
 1004              	.LFB225:
ARM GAS  C:\Users\mauro\AppData\Local\Temp\cczNnVbS.s 			page 28


 534:Drivers/STM32F4xx_HAL_Driver/Src/stm32f4xx_hal_adc_ex.c **** 
 535:Drivers/STM32F4xx_HAL_Driver/Src/stm32f4xx_hal_adc_ex.c **** /**
 536:Drivers/STM32F4xx_HAL_Driver/Src/stm32f4xx_hal_adc_ex.c ****   * @brief  Gets the converted value from data register of injected channel.
 537:Drivers/STM32F4xx_HAL_Driver/Src/stm32f4xx_hal_adc_ex.c ****   * @param  hadc pointer to a ADC_HandleTypeDef structure that contains
 538:Drivers/STM32F4xx_HAL_Driver/Src/stm32f4xx_hal_adc_ex.c ****   *         the configuration information for the specified ADC.
 539:Drivers/STM32F4xx_HAL_Driver/Src/stm32f4xx_hal_adc_ex.c ****   * @param  InjectedRank the ADC injected rank.
 540:Drivers/STM32F4xx_HAL_Driver/Src/stm32f4xx_hal_adc_ex.c ****   *          This parameter can be one of the following values:
 541:Drivers/STM32F4xx_HAL_Driver/Src/stm32f4xx_hal_adc_ex.c ****   *            @arg ADC_INJECTED_RANK_1: Injected Channel1 selected
 542:Drivers/STM32F4xx_HAL_Driver/Src/stm32f4xx_hal_adc_ex.c ****   *            @arg ADC_INJECTED_RANK_2: Injected Channel2 selected
 543:Drivers/STM32F4xx_HAL_Driver/Src/stm32f4xx_hal_adc_ex.c ****   *            @arg ADC_INJECTED_RANK_3: Injected Channel3 selected
 544:Drivers/STM32F4xx_HAL_Driver/Src/stm32f4xx_hal_adc_ex.c ****   *            @arg ADC_INJECTED_RANK_4: Injected Channel4 selected
 545:Drivers/STM32F4xx_HAL_Driver/Src/stm32f4xx_hal_adc_ex.c ****   * @retval None
 546:Drivers/STM32F4xx_HAL_Driver/Src/stm32f4xx_hal_adc_ex.c ****   */
 547:Drivers/STM32F4xx_HAL_Driver/Src/stm32f4xx_hal_adc_ex.c **** uint32_t HAL_ADCEx_InjectedGetValue(ADC_HandleTypeDef *hadc, uint32_t InjectedRank)
 548:Drivers/STM32F4xx_HAL_Driver/Src/stm32f4xx_hal_adc_ex.c **** {
 1005              		.loc 1 548 1
 1006              		.cfi_startproc
 1007              		@ args = 0, pretend = 0, frame = 16
 1008              		@ frame_needed = 1, uses_anonymous_args = 0
 1009              		@ link register save eliminated.
 1010 0000 80B4     		push	{r7}
 1011              	.LCFI29:
 1012              		.cfi_def_cfa_offset 4
 1013              		.cfi_offset 7, -4
 1014 0002 85B0     		sub	sp, sp, #20
 1015              	.LCFI30:
 1016              		.cfi_def_cfa_offset 24
 1017 0004 00AF     		add	r7, sp, #0
 1018              	.LCFI31:
 1019              		.cfi_def_cfa_register 7
 1020 0006 7860     		str	r0, [r7, #4]
 1021 0008 3960     		str	r1, [r7]
 549:Drivers/STM32F4xx_HAL_Driver/Src/stm32f4xx_hal_adc_ex.c ****   __IO uint32_t tmp = 0U;
 1022              		.loc 1 549 17
 1023 000a 0023     		movs	r3, #0
 1024 000c FB60     		str	r3, [r7, #12]
 550:Drivers/STM32F4xx_HAL_Driver/Src/stm32f4xx_hal_adc_ex.c **** 
 551:Drivers/STM32F4xx_HAL_Driver/Src/stm32f4xx_hal_adc_ex.c ****   /* Check the parameters */
 552:Drivers/STM32F4xx_HAL_Driver/Src/stm32f4xx_hal_adc_ex.c ****   assert_param(IS_ADC_INJECTED_RANK(InjectedRank));
 553:Drivers/STM32F4xx_HAL_Driver/Src/stm32f4xx_hal_adc_ex.c **** 
 554:Drivers/STM32F4xx_HAL_Driver/Src/stm32f4xx_hal_adc_ex.c ****   /* Clear injected group conversion flag to have similar behaviour as        */
 555:Drivers/STM32F4xx_HAL_Driver/Src/stm32f4xx_hal_adc_ex.c ****   /* regular group: reading data register also clears end of conversion flag. */
 556:Drivers/STM32F4xx_HAL_Driver/Src/stm32f4xx_hal_adc_ex.c ****   __HAL_ADC_CLEAR_FLAG(hadc, ADC_FLAG_JEOC);
 1025              		.loc 1 556 3
 1026 000e 7B68     		ldr	r3, [r7, #4]
 1027 0010 1B68     		ldr	r3, [r3]
 1028 0012 6FF00402 		mvn	r2, #4
 1029 0016 1A60     		str	r2, [r3]
 557:Drivers/STM32F4xx_HAL_Driver/Src/stm32f4xx_hal_adc_ex.c **** 
 558:Drivers/STM32F4xx_HAL_Driver/Src/stm32f4xx_hal_adc_ex.c ****   /* Return the selected ADC converted value */
 559:Drivers/STM32F4xx_HAL_Driver/Src/stm32f4xx_hal_adc_ex.c ****   switch (InjectedRank)
 1030              		.loc 1 559 3
 1031 0018 3B68     		ldr	r3, [r7]
 1032 001a 013B     		subs	r3, r3, #1
 1033 001c 032B     		cmp	r3, #3
 1034 001e 1FD8     		bhi	.L53
 1035 0020 01A2     		adr	r2, .L47
ARM GAS  C:\Users\mauro\AppData\Local\Temp\cczNnVbS.s 			page 29


 1036 0022 52F823F0 		ldr	pc, [r2, r3, lsl #2]
 1037 0026 00BF     		.p2align 2
 1038              	.L47:
 1039 0028 57000000 		.word	.L50+1
 1040 002c 4D000000 		.word	.L49+1
 1041 0030 43000000 		.word	.L48+1
 1042 0034 39000000 		.word	.L46+1
 1043              		.p2align 1
 1044              	.L46:
 560:Drivers/STM32F4xx_HAL_Driver/Src/stm32f4xx_hal_adc_ex.c ****   {
 561:Drivers/STM32F4xx_HAL_Driver/Src/stm32f4xx_hal_adc_ex.c ****     case ADC_INJECTED_RANK_4:
 562:Drivers/STM32F4xx_HAL_Driver/Src/stm32f4xx_hal_adc_ex.c ****     {
 563:Drivers/STM32F4xx_HAL_Driver/Src/stm32f4xx_hal_adc_ex.c ****       tmp =  hadc->Instance->JDR4;
 1045              		.loc 1 563 18
 1046 0038 7B68     		ldr	r3, [r7, #4]
 1047 003a 1B68     		ldr	r3, [r3]
 1048              		.loc 1 563 28
 1049 003c 9B6C     		ldr	r3, [r3, #72]
 1050              		.loc 1 563 11
 1051 003e FB60     		str	r3, [r7, #12]
 564:Drivers/STM32F4xx_HAL_Driver/Src/stm32f4xx_hal_adc_ex.c ****     }
 565:Drivers/STM32F4xx_HAL_Driver/Src/stm32f4xx_hal_adc_ex.c ****     break;
 1052              		.loc 1 565 5
 1053 0040 0FE0     		b	.L51
 1054              	.L48:
 566:Drivers/STM32F4xx_HAL_Driver/Src/stm32f4xx_hal_adc_ex.c ****     case ADC_INJECTED_RANK_3:
 567:Drivers/STM32F4xx_HAL_Driver/Src/stm32f4xx_hal_adc_ex.c ****     {
 568:Drivers/STM32F4xx_HAL_Driver/Src/stm32f4xx_hal_adc_ex.c ****       tmp =  hadc->Instance->JDR3;
 1055              		.loc 1 568 18
 1056 0042 7B68     		ldr	r3, [r7, #4]
 1057 0044 1B68     		ldr	r3, [r3]
 1058              		.loc 1 568 28
 1059 0046 5B6C     		ldr	r3, [r3, #68]
 1060              		.loc 1 568 11
 1061 0048 FB60     		str	r3, [r7, #12]
 569:Drivers/STM32F4xx_HAL_Driver/Src/stm32f4xx_hal_adc_ex.c ****     }
 570:Drivers/STM32F4xx_HAL_Driver/Src/stm32f4xx_hal_adc_ex.c ****     break;
 1062              		.loc 1 570 5
 1063 004a 0AE0     		b	.L51
 1064              	.L49:
 571:Drivers/STM32F4xx_HAL_Driver/Src/stm32f4xx_hal_adc_ex.c ****     case ADC_INJECTED_RANK_2:
 572:Drivers/STM32F4xx_HAL_Driver/Src/stm32f4xx_hal_adc_ex.c ****     {
 573:Drivers/STM32F4xx_HAL_Driver/Src/stm32f4xx_hal_adc_ex.c ****       tmp =  hadc->Instance->JDR2;
 1065              		.loc 1 573 18
 1066 004c 7B68     		ldr	r3, [r7, #4]
 1067 004e 1B68     		ldr	r3, [r3]
 1068              		.loc 1 573 28
 1069 0050 1B6C     		ldr	r3, [r3, #64]
 1070              		.loc 1 573 11
 1071 0052 FB60     		str	r3, [r7, #12]
 574:Drivers/STM32F4xx_HAL_Driver/Src/stm32f4xx_hal_adc_ex.c ****     }
 575:Drivers/STM32F4xx_HAL_Driver/Src/stm32f4xx_hal_adc_ex.c ****     break;
 1072              		.loc 1 575 5
 1073 0054 05E0     		b	.L51
 1074              	.L50:
 576:Drivers/STM32F4xx_HAL_Driver/Src/stm32f4xx_hal_adc_ex.c ****     case ADC_INJECTED_RANK_1:
 577:Drivers/STM32F4xx_HAL_Driver/Src/stm32f4xx_hal_adc_ex.c ****     {
ARM GAS  C:\Users\mauro\AppData\Local\Temp\cczNnVbS.s 			page 30


 578:Drivers/STM32F4xx_HAL_Driver/Src/stm32f4xx_hal_adc_ex.c ****       tmp =  hadc->Instance->JDR1;
 1075              		.loc 1 578 18
 1076 0056 7B68     		ldr	r3, [r7, #4]
 1077 0058 1B68     		ldr	r3, [r3]
 1078              		.loc 1 578 28
 1079 005a DB6B     		ldr	r3, [r3, #60]
 1080              		.loc 1 578 11
 1081 005c FB60     		str	r3, [r7, #12]
 579:Drivers/STM32F4xx_HAL_Driver/Src/stm32f4xx_hal_adc_ex.c ****     }
 580:Drivers/STM32F4xx_HAL_Driver/Src/stm32f4xx_hal_adc_ex.c ****     break;
 1082              		.loc 1 580 5
 1083 005e 00E0     		b	.L51
 1084              	.L53:
 581:Drivers/STM32F4xx_HAL_Driver/Src/stm32f4xx_hal_adc_ex.c ****     default:
 582:Drivers/STM32F4xx_HAL_Driver/Src/stm32f4xx_hal_adc_ex.c ****       break;
 1085              		.loc 1 582 7
 1086 0060 00BF     		nop
 1087              	.L51:
 583:Drivers/STM32F4xx_HAL_Driver/Src/stm32f4xx_hal_adc_ex.c ****   }
 584:Drivers/STM32F4xx_HAL_Driver/Src/stm32f4xx_hal_adc_ex.c ****   return tmp;
 1088              		.loc 1 584 10
 1089 0062 FB68     		ldr	r3, [r7, #12]
 585:Drivers/STM32F4xx_HAL_Driver/Src/stm32f4xx_hal_adc_ex.c **** }
 1090              		.loc 1 585 1
 1091 0064 1846     		mov	r0, r3
 1092 0066 1437     		adds	r7, r7, #20
 1093              	.LCFI32:
 1094              		.cfi_def_cfa_offset 4
 1095 0068 BD46     		mov	sp, r7
 1096              	.LCFI33:
 1097              		.cfi_def_cfa_register 13
 1098              		@ sp needed
 1099 006a 5DF8047B 		ldr	r7, [sp], #4
 1100              	.LCFI34:
 1101              		.cfi_restore 7
 1102              		.cfi_def_cfa_offset 0
 1103 006e 7047     		bx	lr
 1104              		.cfi_endproc
 1105              	.LFE225:
 1107              		.section	.text.HAL_ADCEx_MultiModeStart_DMA,"ax",%progbits
 1108              		.align	1
 1109              		.global	HAL_ADCEx_MultiModeStart_DMA
 1110              		.syntax unified
 1111              		.thumb
 1112              		.thumb_func
 1114              	HAL_ADCEx_MultiModeStart_DMA:
 1115              	.LFB226:
 586:Drivers/STM32F4xx_HAL_Driver/Src/stm32f4xx_hal_adc_ex.c **** 
 587:Drivers/STM32F4xx_HAL_Driver/Src/stm32f4xx_hal_adc_ex.c **** /**
 588:Drivers/STM32F4xx_HAL_Driver/Src/stm32f4xx_hal_adc_ex.c ****   * @brief  Enables ADC DMA request after last transfer (Multi-ADC mode) and enables ADC peripheral
 589:Drivers/STM32F4xx_HAL_Driver/Src/stm32f4xx_hal_adc_ex.c ****   *
 590:Drivers/STM32F4xx_HAL_Driver/Src/stm32f4xx_hal_adc_ex.c ****   * @note   Caution: This function must be used only with the ADC master.
 591:Drivers/STM32F4xx_HAL_Driver/Src/stm32f4xx_hal_adc_ex.c ****   *
 592:Drivers/STM32F4xx_HAL_Driver/Src/stm32f4xx_hal_adc_ex.c ****   * @param  hadc pointer to a ADC_HandleTypeDef structure that contains
 593:Drivers/STM32F4xx_HAL_Driver/Src/stm32f4xx_hal_adc_ex.c ****   *         the configuration information for the specified ADC.
 594:Drivers/STM32F4xx_HAL_Driver/Src/stm32f4xx_hal_adc_ex.c ****   * @param  pData   Pointer to buffer in which transferred from ADC peripheral to memory will be st
 595:Drivers/STM32F4xx_HAL_Driver/Src/stm32f4xx_hal_adc_ex.c ****   * @param  Length  The length of data to be transferred from ADC peripheral to memory.
ARM GAS  C:\Users\mauro\AppData\Local\Temp\cczNnVbS.s 			page 31


 596:Drivers/STM32F4xx_HAL_Driver/Src/stm32f4xx_hal_adc_ex.c ****   * @retval HAL status
 597:Drivers/STM32F4xx_HAL_Driver/Src/stm32f4xx_hal_adc_ex.c ****   */
 598:Drivers/STM32F4xx_HAL_Driver/Src/stm32f4xx_hal_adc_ex.c **** HAL_StatusTypeDef HAL_ADCEx_MultiModeStart_DMA(ADC_HandleTypeDef *hadc, uint32_t *pData, uint32_t L
 599:Drivers/STM32F4xx_HAL_Driver/Src/stm32f4xx_hal_adc_ex.c **** {
 1116              		.loc 1 599 1
 1117              		.cfi_startproc
 1118              		@ args = 0, pretend = 0, frame = 32
 1119              		@ frame_needed = 1, uses_anonymous_args = 0
 1120 0000 80B5     		push	{r7, lr}
 1121              	.LCFI35:
 1122              		.cfi_def_cfa_offset 8
 1123              		.cfi_offset 7, -8
 1124              		.cfi_offset 14, -4
 1125 0002 88B0     		sub	sp, sp, #32
 1126              	.LCFI36:
 1127              		.cfi_def_cfa_offset 40
 1128 0004 00AF     		add	r7, sp, #0
 1129              	.LCFI37:
 1130              		.cfi_def_cfa_register 7
 1131 0006 F860     		str	r0, [r7, #12]
 1132 0008 B960     		str	r1, [r7, #8]
 1133 000a 7A60     		str	r2, [r7, #4]
 600:Drivers/STM32F4xx_HAL_Driver/Src/stm32f4xx_hal_adc_ex.c ****   __IO uint32_t counter = 0U;
 1134              		.loc 1 600 17
 1135 000c 0023     		movs	r3, #0
 1136 000e 7B61     		str	r3, [r7, #20]
 601:Drivers/STM32F4xx_HAL_Driver/Src/stm32f4xx_hal_adc_ex.c ****   ADC_Common_TypeDef *tmpADC_Common;
 602:Drivers/STM32F4xx_HAL_Driver/Src/stm32f4xx_hal_adc_ex.c ****   HAL_StatusTypeDef tmp_hal_status = HAL_OK;
 1137              		.loc 1 602 21
 1138 0010 0023     		movs	r3, #0
 1139 0012 FB77     		strb	r3, [r7, #31]
 603:Drivers/STM32F4xx_HAL_Driver/Src/stm32f4xx_hal_adc_ex.c ****   /* Check the parameters */
 604:Drivers/STM32F4xx_HAL_Driver/Src/stm32f4xx_hal_adc_ex.c ****   assert_param(IS_FUNCTIONAL_STATE(hadc->Init.ContinuousConvMode));
 605:Drivers/STM32F4xx_HAL_Driver/Src/stm32f4xx_hal_adc_ex.c ****   assert_param(IS_ADC_EXT_TRIG_EDGE(hadc->Init.ExternalTrigConvEdge));
 606:Drivers/STM32F4xx_HAL_Driver/Src/stm32f4xx_hal_adc_ex.c ****   assert_param(IS_FUNCTIONAL_STATE(hadc->Init.DMAContinuousRequests));
 607:Drivers/STM32F4xx_HAL_Driver/Src/stm32f4xx_hal_adc_ex.c **** 
 608:Drivers/STM32F4xx_HAL_Driver/Src/stm32f4xx_hal_adc_ex.c ****   /* Process locked */
 609:Drivers/STM32F4xx_HAL_Driver/Src/stm32f4xx_hal_adc_ex.c ****   __HAL_LOCK(hadc);
 1140              		.loc 1 609 3
 1141 0014 FB68     		ldr	r3, [r7, #12]
 1142 0016 93F83C30 		ldrb	r3, [r3, #60]	@ zero_extendqisi2
 1143 001a 012B     		cmp	r3, #1
 1144 001c 01D1     		bne	.L55
 1145              		.loc 1 609 3 is_stmt 0 discriminator 1
 1146 001e 0223     		movs	r3, #2
 1147 0020 ADE0     		b	.L56
 1148              	.L55:
 1149              		.loc 1 609 3 discriminator 2
 1150 0022 FB68     		ldr	r3, [r7, #12]
 1151 0024 0122     		movs	r2, #1
 1152 0026 83F83C20 		strb	r2, [r3, #60]
 610:Drivers/STM32F4xx_HAL_Driver/Src/stm32f4xx_hal_adc_ex.c **** 
 611:Drivers/STM32F4xx_HAL_Driver/Src/stm32f4xx_hal_adc_ex.c ****   /* Check if ADC peripheral is disabled in order to enable it and wait during
 612:Drivers/STM32F4xx_HAL_Driver/Src/stm32f4xx_hal_adc_ex.c ****      Tstab time the ADC's stabilization */
 613:Drivers/STM32F4xx_HAL_Driver/Src/stm32f4xx_hal_adc_ex.c ****   if ((hadc->Instance->CR2 & ADC_CR2_ADON) != ADC_CR2_ADON)
 1153              		.loc 1 613 12 is_stmt 1 discriminator 2
 1154 002a FB68     		ldr	r3, [r7, #12]
ARM GAS  C:\Users\mauro\AppData\Local\Temp\cczNnVbS.s 			page 32


 1155 002c 1B68     		ldr	r3, [r3]
 1156              		.loc 1 613 22 discriminator 2
 1157 002e 9B68     		ldr	r3, [r3, #8]
 1158              		.loc 1 613 28 discriminator 2
 1159 0030 03F00103 		and	r3, r3, #1
 1160              		.loc 1 613 6 discriminator 2
 1161 0034 012B     		cmp	r3, #1
 1162 0036 18D0     		beq	.L57
 614:Drivers/STM32F4xx_HAL_Driver/Src/stm32f4xx_hal_adc_ex.c ****   {
 615:Drivers/STM32F4xx_HAL_Driver/Src/stm32f4xx_hal_adc_ex.c ****     /* Enable the Peripheral */
 616:Drivers/STM32F4xx_HAL_Driver/Src/stm32f4xx_hal_adc_ex.c ****     __HAL_ADC_ENABLE(hadc);
 1163              		.loc 1 616 5
 1164 0038 FB68     		ldr	r3, [r7, #12]
 1165 003a 1B68     		ldr	r3, [r3]
 1166 003c 9A68     		ldr	r2, [r3, #8]
 1167 003e FB68     		ldr	r3, [r7, #12]
 1168 0040 1B68     		ldr	r3, [r3]
 1169 0042 42F00102 		orr	r2, r2, #1
 1170 0046 9A60     		str	r2, [r3, #8]
 617:Drivers/STM32F4xx_HAL_Driver/Src/stm32f4xx_hal_adc_ex.c **** 
 618:Drivers/STM32F4xx_HAL_Driver/Src/stm32f4xx_hal_adc_ex.c ****     /* Delay for temperature sensor stabilization time */
 619:Drivers/STM32F4xx_HAL_Driver/Src/stm32f4xx_hal_adc_ex.c ****     /* Compute number of CPU cycles to wait for */
 620:Drivers/STM32F4xx_HAL_Driver/Src/stm32f4xx_hal_adc_ex.c ****     counter = (ADC_STAB_DELAY_US * (SystemCoreClock / 1000000U));
 1171              		.loc 1 620 53
 1172 0048 4F4B     		ldr	r3, .L67
 1173 004a 1B68     		ldr	r3, [r3]
 1174 004c 4F4A     		ldr	r2, .L67+4
 1175 004e A2FB0323 		umull	r2, r3, r2, r3
 1176 0052 9A0C     		lsrs	r2, r3, #18
 1177              		.loc 1 620 34
 1178 0054 1346     		mov	r3, r2
 1179 0056 5B00     		lsls	r3, r3, #1
 1180 0058 1344     		add	r3, r3, r2
 1181              		.loc 1 620 13
 1182 005a 7B61     		str	r3, [r7, #20]
 621:Drivers/STM32F4xx_HAL_Driver/Src/stm32f4xx_hal_adc_ex.c ****     while (counter != 0U)
 1183              		.loc 1 621 11
 1184 005c 02E0     		b	.L58
 1185              	.L59:
 622:Drivers/STM32F4xx_HAL_Driver/Src/stm32f4xx_hal_adc_ex.c ****     {
 623:Drivers/STM32F4xx_HAL_Driver/Src/stm32f4xx_hal_adc_ex.c ****       counter--;
 1186              		.loc 1 623 14
 1187 005e 7B69     		ldr	r3, [r7, #20]
 1188 0060 013B     		subs	r3, r3, #1
 1189 0062 7B61     		str	r3, [r7, #20]
 1190              	.L58:
 621:Drivers/STM32F4xx_HAL_Driver/Src/stm32f4xx_hal_adc_ex.c ****     while (counter != 0U)
 1191              		.loc 1 621 20
 1192 0064 7B69     		ldr	r3, [r7, #20]
 1193 0066 002B     		cmp	r3, #0
 1194 0068 F9D1     		bne	.L59
 1195              	.L57:
 624:Drivers/STM32F4xx_HAL_Driver/Src/stm32f4xx_hal_adc_ex.c ****     }
 625:Drivers/STM32F4xx_HAL_Driver/Src/stm32f4xx_hal_adc_ex.c ****   }
 626:Drivers/STM32F4xx_HAL_Driver/Src/stm32f4xx_hal_adc_ex.c **** 
 627:Drivers/STM32F4xx_HAL_Driver/Src/stm32f4xx_hal_adc_ex.c ****   /* Start conversion if ADC is effectively enabled */
 628:Drivers/STM32F4xx_HAL_Driver/Src/stm32f4xx_hal_adc_ex.c ****   if (HAL_IS_BIT_SET(hadc->Instance->CR2, ADC_CR2_ADON))
ARM GAS  C:\Users\mauro\AppData\Local\Temp\cczNnVbS.s 			page 33


 1196              		.loc 1 628 7
 1197 006a FB68     		ldr	r3, [r7, #12]
 1198 006c 1B68     		ldr	r3, [r3]
 1199 006e 9B68     		ldr	r3, [r3, #8]
 1200 0070 03F00103 		and	r3, r3, #1
 1201              		.loc 1 628 6
 1202 0074 012B     		cmp	r3, #1
 1203 0076 75D1     		bne	.L60
 629:Drivers/STM32F4xx_HAL_Driver/Src/stm32f4xx_hal_adc_ex.c ****   {
 630:Drivers/STM32F4xx_HAL_Driver/Src/stm32f4xx_hal_adc_ex.c ****     /* Set ADC state                                                          */
 631:Drivers/STM32F4xx_HAL_Driver/Src/stm32f4xx_hal_adc_ex.c ****     /* - Clear state bitfield related to regular group conversion results     */
 632:Drivers/STM32F4xx_HAL_Driver/Src/stm32f4xx_hal_adc_ex.c ****     /* - Set state bitfield related to regular group operation                */
 633:Drivers/STM32F4xx_HAL_Driver/Src/stm32f4xx_hal_adc_ex.c ****     ADC_STATE_CLR_SET(hadc->State,
 1204              		.loc 1 633 5
 1205 0078 FB68     		ldr	r3, [r7, #12]
 1206 007a 1B6C     		ldr	r3, [r3, #64]
 1207 007c 23F4E063 		bic	r3, r3, #1792
 1208 0080 23F00103 		bic	r3, r3, #1
 1209 0084 43F48072 		orr	r2, r3, #256
 1210 0088 FB68     		ldr	r3, [r7, #12]
 1211 008a 1A64     		str	r2, [r3, #64]
 634:Drivers/STM32F4xx_HAL_Driver/Src/stm32f4xx_hal_adc_ex.c ****                       HAL_ADC_STATE_READY | HAL_ADC_STATE_REG_EOC | HAL_ADC_STATE_REG_OVR,
 635:Drivers/STM32F4xx_HAL_Driver/Src/stm32f4xx_hal_adc_ex.c ****                       HAL_ADC_STATE_REG_BUSY);
 636:Drivers/STM32F4xx_HAL_Driver/Src/stm32f4xx_hal_adc_ex.c **** 
 637:Drivers/STM32F4xx_HAL_Driver/Src/stm32f4xx_hal_adc_ex.c ****     /* If conversions on group regular are also triggering group injected,    */
 638:Drivers/STM32F4xx_HAL_Driver/Src/stm32f4xx_hal_adc_ex.c ****     /* update ADC state.                                                      */
 639:Drivers/STM32F4xx_HAL_Driver/Src/stm32f4xx_hal_adc_ex.c ****     if (READ_BIT(hadc->Instance->CR1, ADC_CR1_JAUTO) != RESET)
 1212              		.loc 1 639 9
 1213 008c FB68     		ldr	r3, [r7, #12]
 1214 008e 1B68     		ldr	r3, [r3]
 1215 0090 5B68     		ldr	r3, [r3, #4]
 1216 0092 03F48063 		and	r3, r3, #1024
 1217              		.loc 1 639 8
 1218 0096 002B     		cmp	r3, #0
 1219 0098 07D0     		beq	.L61
 640:Drivers/STM32F4xx_HAL_Driver/Src/stm32f4xx_hal_adc_ex.c ****     {
 641:Drivers/STM32F4xx_HAL_Driver/Src/stm32f4xx_hal_adc_ex.c ****       ADC_STATE_CLR_SET(hadc->State, HAL_ADC_STATE_INJ_EOC, HAL_ADC_STATE_INJ_BUSY);
 1220              		.loc 1 641 7
 1221 009a FB68     		ldr	r3, [r7, #12]
 1222 009c 1B6C     		ldr	r3, [r3, #64]
 1223 009e 23F44053 		bic	r3, r3, #12288
 1224 00a2 43F48052 		orr	r2, r3, #4096
 1225 00a6 FB68     		ldr	r3, [r7, #12]
 1226 00a8 1A64     		str	r2, [r3, #64]
 1227              	.L61:
 642:Drivers/STM32F4xx_HAL_Driver/Src/stm32f4xx_hal_adc_ex.c ****     }
 643:Drivers/STM32F4xx_HAL_Driver/Src/stm32f4xx_hal_adc_ex.c **** 
 644:Drivers/STM32F4xx_HAL_Driver/Src/stm32f4xx_hal_adc_ex.c ****     /* State machine update: Check if an injected conversion is ongoing */
 645:Drivers/STM32F4xx_HAL_Driver/Src/stm32f4xx_hal_adc_ex.c ****     if (HAL_IS_BIT_SET(hadc->State, HAL_ADC_STATE_INJ_BUSY))
 1228              		.loc 1 645 9
 1229 00aa FB68     		ldr	r3, [r7, #12]
 1230 00ac 1B6C     		ldr	r3, [r3, #64]
 1231 00ae 03F48053 		and	r3, r3, #4096
 1232              		.loc 1 645 8
 1233 00b2 B3F5805F 		cmp	r3, #4096
 1234 00b6 06D1     		bne	.L62
 646:Drivers/STM32F4xx_HAL_Driver/Src/stm32f4xx_hal_adc_ex.c ****     {
ARM GAS  C:\Users\mauro\AppData\Local\Temp\cczNnVbS.s 			page 34


 647:Drivers/STM32F4xx_HAL_Driver/Src/stm32f4xx_hal_adc_ex.c ****       /* Reset ADC error code fields related to conversions on group regular */
 648:Drivers/STM32F4xx_HAL_Driver/Src/stm32f4xx_hal_adc_ex.c ****       CLEAR_BIT(hadc->ErrorCode, (HAL_ADC_ERROR_OVR | HAL_ADC_ERROR_DMA));
 1235              		.loc 1 648 7
 1236 00b8 FB68     		ldr	r3, [r7, #12]
 1237 00ba 5B6C     		ldr	r3, [r3, #68]
 1238 00bc 23F00602 		bic	r2, r3, #6
 1239 00c0 FB68     		ldr	r3, [r7, #12]
 1240 00c2 5A64     		str	r2, [r3, #68]
 1241 00c4 02E0     		b	.L63
 1242              	.L62:
 649:Drivers/STM32F4xx_HAL_Driver/Src/stm32f4xx_hal_adc_ex.c ****     }
 650:Drivers/STM32F4xx_HAL_Driver/Src/stm32f4xx_hal_adc_ex.c ****     else
 651:Drivers/STM32F4xx_HAL_Driver/Src/stm32f4xx_hal_adc_ex.c ****     {
 652:Drivers/STM32F4xx_HAL_Driver/Src/stm32f4xx_hal_adc_ex.c ****       /* Reset ADC all error code fields */
 653:Drivers/STM32F4xx_HAL_Driver/Src/stm32f4xx_hal_adc_ex.c ****       ADC_CLEAR_ERRORCODE(hadc);
 1243              		.loc 1 653 7
 1244 00c6 FB68     		ldr	r3, [r7, #12]
 1245 00c8 0022     		movs	r2, #0
 1246 00ca 5A64     		str	r2, [r3, #68]
 1247              	.L63:
 654:Drivers/STM32F4xx_HAL_Driver/Src/stm32f4xx_hal_adc_ex.c ****     }
 655:Drivers/STM32F4xx_HAL_Driver/Src/stm32f4xx_hal_adc_ex.c **** 
 656:Drivers/STM32F4xx_HAL_Driver/Src/stm32f4xx_hal_adc_ex.c ****     /* Process unlocked */
 657:Drivers/STM32F4xx_HAL_Driver/Src/stm32f4xx_hal_adc_ex.c ****     /* Unlock before starting ADC conversions: in case of potential           */
 658:Drivers/STM32F4xx_HAL_Driver/Src/stm32f4xx_hal_adc_ex.c ****     /* interruption, to let the process to ADC IRQ Handler.                   */
 659:Drivers/STM32F4xx_HAL_Driver/Src/stm32f4xx_hal_adc_ex.c ****     __HAL_UNLOCK(hadc);
 1248              		.loc 1 659 5
 1249 00cc FB68     		ldr	r3, [r7, #12]
 1250 00ce 0022     		movs	r2, #0
 1251 00d0 83F83C20 		strb	r2, [r3, #60]
 660:Drivers/STM32F4xx_HAL_Driver/Src/stm32f4xx_hal_adc_ex.c **** 
 661:Drivers/STM32F4xx_HAL_Driver/Src/stm32f4xx_hal_adc_ex.c ****     /* Set the DMA transfer complete callback */
 662:Drivers/STM32F4xx_HAL_Driver/Src/stm32f4xx_hal_adc_ex.c ****     hadc->DMA_Handle->XferCpltCallback = ADC_MultiModeDMAConvCplt;
 1252              		.loc 1 662 9
 1253 00d4 FB68     		ldr	r3, [r7, #12]
 1254 00d6 9B6B     		ldr	r3, [r3, #56]
 1255              		.loc 1 662 40
 1256 00d8 2D4A     		ldr	r2, .L67+8
 1257 00da DA63     		str	r2, [r3, #60]
 663:Drivers/STM32F4xx_HAL_Driver/Src/stm32f4xx_hal_adc_ex.c **** 
 664:Drivers/STM32F4xx_HAL_Driver/Src/stm32f4xx_hal_adc_ex.c ****     /* Set the DMA half transfer complete callback */
 665:Drivers/STM32F4xx_HAL_Driver/Src/stm32f4xx_hal_adc_ex.c ****     hadc->DMA_Handle->XferHalfCpltCallback = ADC_MultiModeDMAHalfConvCplt;
 1258              		.loc 1 665 9
 1259 00dc FB68     		ldr	r3, [r7, #12]
 1260 00de 9B6B     		ldr	r3, [r3, #56]
 1261              		.loc 1 665 44
 1262 00e0 2C4A     		ldr	r2, .L67+12
 1263 00e2 1A64     		str	r2, [r3, #64]
 666:Drivers/STM32F4xx_HAL_Driver/Src/stm32f4xx_hal_adc_ex.c **** 
 667:Drivers/STM32F4xx_HAL_Driver/Src/stm32f4xx_hal_adc_ex.c ****     /* Set the DMA error callback */
 668:Drivers/STM32F4xx_HAL_Driver/Src/stm32f4xx_hal_adc_ex.c ****     hadc->DMA_Handle->XferErrorCallback = ADC_MultiModeDMAError ;
 1264              		.loc 1 668 9
 1265 00e4 FB68     		ldr	r3, [r7, #12]
 1266 00e6 9B6B     		ldr	r3, [r3, #56]
 1267              		.loc 1 668 41
 1268 00e8 2B4A     		ldr	r2, .L67+16
 1269 00ea DA64     		str	r2, [r3, #76]
ARM GAS  C:\Users\mauro\AppData\Local\Temp\cczNnVbS.s 			page 35


 669:Drivers/STM32F4xx_HAL_Driver/Src/stm32f4xx_hal_adc_ex.c **** 
 670:Drivers/STM32F4xx_HAL_Driver/Src/stm32f4xx_hal_adc_ex.c ****     /* Manage ADC and DMA start: ADC overrun interruption, DMA start, ADC     */
 671:Drivers/STM32F4xx_HAL_Driver/Src/stm32f4xx_hal_adc_ex.c ****     /* start (in case of SW start):                                           */
 672:Drivers/STM32F4xx_HAL_Driver/Src/stm32f4xx_hal_adc_ex.c **** 
 673:Drivers/STM32F4xx_HAL_Driver/Src/stm32f4xx_hal_adc_ex.c ****     /* Clear regular group conversion flag and overrun flag */
 674:Drivers/STM32F4xx_HAL_Driver/Src/stm32f4xx_hal_adc_ex.c ****     /* (To ensure of no unknown state from potential previous ADC operations) */
 675:Drivers/STM32F4xx_HAL_Driver/Src/stm32f4xx_hal_adc_ex.c ****     __HAL_ADC_CLEAR_FLAG(hadc, ADC_FLAG_EOC);
 1270              		.loc 1 675 5
 1271 00ec FB68     		ldr	r3, [r7, #12]
 1272 00ee 1B68     		ldr	r3, [r3]
 1273 00f0 6FF00202 		mvn	r2, #2
 1274 00f4 1A60     		str	r2, [r3]
 676:Drivers/STM32F4xx_HAL_Driver/Src/stm32f4xx_hal_adc_ex.c **** 
 677:Drivers/STM32F4xx_HAL_Driver/Src/stm32f4xx_hal_adc_ex.c ****     /* Enable ADC overrun interrupt */
 678:Drivers/STM32F4xx_HAL_Driver/Src/stm32f4xx_hal_adc_ex.c ****     __HAL_ADC_ENABLE_IT(hadc, ADC_IT_OVR);
 1275              		.loc 1 678 5
 1276 00f6 FB68     		ldr	r3, [r7, #12]
 1277 00f8 1B68     		ldr	r3, [r3]
 1278 00fa 5A68     		ldr	r2, [r3, #4]
 1279 00fc FB68     		ldr	r3, [r7, #12]
 1280 00fe 1B68     		ldr	r3, [r3]
 1281 0100 42F08062 		orr	r2, r2, #67108864
 1282 0104 5A60     		str	r2, [r3, #4]
 679:Drivers/STM32F4xx_HAL_Driver/Src/stm32f4xx_hal_adc_ex.c **** 
 680:Drivers/STM32F4xx_HAL_Driver/Src/stm32f4xx_hal_adc_ex.c ****     /* Pointer to the common control register to which is belonging hadc    */
 681:Drivers/STM32F4xx_HAL_Driver/Src/stm32f4xx_hal_adc_ex.c ****     /* (Depending on STM32F4 product, there may be up to 3 ADC and 1 common */
 682:Drivers/STM32F4xx_HAL_Driver/Src/stm32f4xx_hal_adc_ex.c ****     /* control register)                                                    */
 683:Drivers/STM32F4xx_HAL_Driver/Src/stm32f4xx_hal_adc_ex.c ****     tmpADC_Common = ADC_COMMON_REGISTER(hadc);
 1283              		.loc 1 683 19
 1284 0106 254B     		ldr	r3, .L67+20
 1285 0108 BB61     		str	r3, [r7, #24]
 684:Drivers/STM32F4xx_HAL_Driver/Src/stm32f4xx_hal_adc_ex.c **** 
 685:Drivers/STM32F4xx_HAL_Driver/Src/stm32f4xx_hal_adc_ex.c ****     if (hadc->Init.DMAContinuousRequests != DISABLE)
 1286              		.loc 1 685 19
 1287 010a FB68     		ldr	r3, [r7, #12]
 1288 010c 93F83030 		ldrb	r3, [r3, #48]	@ zero_extendqisi2
 1289              		.loc 1 685 8
 1290 0110 002B     		cmp	r3, #0
 1291 0112 06D0     		beq	.L64
 686:Drivers/STM32F4xx_HAL_Driver/Src/stm32f4xx_hal_adc_ex.c ****     {
 687:Drivers/STM32F4xx_HAL_Driver/Src/stm32f4xx_hal_adc_ex.c ****       /* Enable the selected ADC DMA request after last transfer */
 688:Drivers/STM32F4xx_HAL_Driver/Src/stm32f4xx_hal_adc_ex.c ****       tmpADC_Common->CCR |= ADC_CCR_DDS;
 1292              		.loc 1 688 26
 1293 0114 BB69     		ldr	r3, [r7, #24]
 1294 0116 5B68     		ldr	r3, [r3, #4]
 1295 0118 43F40052 		orr	r2, r3, #8192
 1296 011c BB69     		ldr	r3, [r7, #24]
 1297 011e 5A60     		str	r2, [r3, #4]
 1298 0120 05E0     		b	.L65
 1299              	.L64:
 689:Drivers/STM32F4xx_HAL_Driver/Src/stm32f4xx_hal_adc_ex.c ****     }
 690:Drivers/STM32F4xx_HAL_Driver/Src/stm32f4xx_hal_adc_ex.c ****     else
 691:Drivers/STM32F4xx_HAL_Driver/Src/stm32f4xx_hal_adc_ex.c ****     {
 692:Drivers/STM32F4xx_HAL_Driver/Src/stm32f4xx_hal_adc_ex.c ****       /* Disable the selected ADC EOC rising on each regular channel conversion */
 693:Drivers/STM32F4xx_HAL_Driver/Src/stm32f4xx_hal_adc_ex.c ****       tmpADC_Common->CCR &= ~ADC_CCR_DDS;
 1300              		.loc 1 693 26
 1301 0122 BB69     		ldr	r3, [r7, #24]
ARM GAS  C:\Users\mauro\AppData\Local\Temp\cczNnVbS.s 			page 36


 1302 0124 5B68     		ldr	r3, [r3, #4]
 1303 0126 23F40052 		bic	r2, r3, #8192
 1304 012a BB69     		ldr	r3, [r7, #24]
 1305 012c 5A60     		str	r2, [r3, #4]
 1306              	.L65:
 694:Drivers/STM32F4xx_HAL_Driver/Src/stm32f4xx_hal_adc_ex.c ****     }
 695:Drivers/STM32F4xx_HAL_Driver/Src/stm32f4xx_hal_adc_ex.c **** 
 696:Drivers/STM32F4xx_HAL_Driver/Src/stm32f4xx_hal_adc_ex.c ****     /* Enable the DMA Stream */
 697:Drivers/STM32F4xx_HAL_Driver/Src/stm32f4xx_hal_adc_ex.c ****     tmp_hal_status = HAL_DMA_Start_IT(hadc->DMA_Handle, (uint32_t)&tmpADC_Common->CDR, (uint32_t)pD
 1307              		.loc 1 697 22
 1308 012e FB68     		ldr	r3, [r7, #12]
 1309 0130 986B     		ldr	r0, [r3, #56]
 1310              		.loc 1 697 67
 1311 0132 BB69     		ldr	r3, [r7, #24]
 1312 0134 0833     		adds	r3, r3, #8
 1313              		.loc 1 697 22
 1314 0136 1946     		mov	r1, r3
 1315 0138 BA68     		ldr	r2, [r7, #8]
 1316 013a 7B68     		ldr	r3, [r7, #4]
 1317 013c FFF7FEFF 		bl	HAL_DMA_Start_IT
 1318 0140 0346     		mov	r3, r0
 1319 0142 FB77     		strb	r3, [r7, #31]
 698:Drivers/STM32F4xx_HAL_Driver/Src/stm32f4xx_hal_adc_ex.c **** 
 699:Drivers/STM32F4xx_HAL_Driver/Src/stm32f4xx_hal_adc_ex.c ****     /* if no external trigger present enable software conversion of regular channels */
 700:Drivers/STM32F4xx_HAL_Driver/Src/stm32f4xx_hal_adc_ex.c ****     if ((hadc->Instance->CR2 & ADC_CR2_EXTEN) == RESET)
 1320              		.loc 1 700 14
 1321 0144 FB68     		ldr	r3, [r7, #12]
 1322 0146 1B68     		ldr	r3, [r3]
 1323              		.loc 1 700 24
 1324 0148 9B68     		ldr	r3, [r3, #8]
 1325              		.loc 1 700 30
 1326 014a 03F04053 		and	r3, r3, #805306368
 1327              		.loc 1 700 8
 1328 014e 002B     		cmp	r3, #0
 1329 0150 14D1     		bne	.L66
 701:Drivers/STM32F4xx_HAL_Driver/Src/stm32f4xx_hal_adc_ex.c ****     {
 702:Drivers/STM32F4xx_HAL_Driver/Src/stm32f4xx_hal_adc_ex.c ****       /* Enable the selected ADC software conversion for regular group */
 703:Drivers/STM32F4xx_HAL_Driver/Src/stm32f4xx_hal_adc_ex.c ****       hadc->Instance->CR2 |= (uint32_t)ADC_CR2_SWSTART;
 1330              		.loc 1 703 11
 1331 0152 FB68     		ldr	r3, [r7, #12]
 1332 0154 1B68     		ldr	r3, [r3]
 1333              		.loc 1 703 27
 1334 0156 9A68     		ldr	r2, [r3, #8]
 1335              		.loc 1 703 11
 1336 0158 FB68     		ldr	r3, [r7, #12]
 1337 015a 1B68     		ldr	r3, [r3]
 1338              		.loc 1 703 27
 1339 015c 42F08042 		orr	r2, r2, #1073741824
 1340 0160 9A60     		str	r2, [r3, #8]
 1341 0162 0BE0     		b	.L66
 1342              	.L60:
 704:Drivers/STM32F4xx_HAL_Driver/Src/stm32f4xx_hal_adc_ex.c ****     }
 705:Drivers/STM32F4xx_HAL_Driver/Src/stm32f4xx_hal_adc_ex.c ****   }
 706:Drivers/STM32F4xx_HAL_Driver/Src/stm32f4xx_hal_adc_ex.c ****   else
 707:Drivers/STM32F4xx_HAL_Driver/Src/stm32f4xx_hal_adc_ex.c ****   {
 708:Drivers/STM32F4xx_HAL_Driver/Src/stm32f4xx_hal_adc_ex.c ****     /* Update ADC state machine to error */
 709:Drivers/STM32F4xx_HAL_Driver/Src/stm32f4xx_hal_adc_ex.c ****     SET_BIT(hadc->State, HAL_ADC_STATE_ERROR_INTERNAL);
ARM GAS  C:\Users\mauro\AppData\Local\Temp\cczNnVbS.s 			page 37


 1343              		.loc 1 709 5
 1344 0164 FB68     		ldr	r3, [r7, #12]
 1345 0166 1B6C     		ldr	r3, [r3, #64]
 1346 0168 43F01002 		orr	r2, r3, #16
 1347 016c FB68     		ldr	r3, [r7, #12]
 1348 016e 1A64     		str	r2, [r3, #64]
 710:Drivers/STM32F4xx_HAL_Driver/Src/stm32f4xx_hal_adc_ex.c **** 
 711:Drivers/STM32F4xx_HAL_Driver/Src/stm32f4xx_hal_adc_ex.c ****     /* Set ADC error code to ADC IP internal error */
 712:Drivers/STM32F4xx_HAL_Driver/Src/stm32f4xx_hal_adc_ex.c ****     SET_BIT(hadc->ErrorCode, HAL_ADC_ERROR_INTERNAL);
 1349              		.loc 1 712 5
 1350 0170 FB68     		ldr	r3, [r7, #12]
 1351 0172 5B6C     		ldr	r3, [r3, #68]
 1352 0174 43F00102 		orr	r2, r3, #1
 1353 0178 FB68     		ldr	r3, [r7, #12]
 1354 017a 5A64     		str	r2, [r3, #68]
 1355              	.L66:
 713:Drivers/STM32F4xx_HAL_Driver/Src/stm32f4xx_hal_adc_ex.c ****   }
 714:Drivers/STM32F4xx_HAL_Driver/Src/stm32f4xx_hal_adc_ex.c **** 
 715:Drivers/STM32F4xx_HAL_Driver/Src/stm32f4xx_hal_adc_ex.c ****   /* Return function status */
 716:Drivers/STM32F4xx_HAL_Driver/Src/stm32f4xx_hal_adc_ex.c ****   return tmp_hal_status;
 1356              		.loc 1 716 10
 1357 017c FB7F     		ldrb	r3, [r7, #31]	@ zero_extendqisi2
 1358              	.L56:
 717:Drivers/STM32F4xx_HAL_Driver/Src/stm32f4xx_hal_adc_ex.c **** }
 1359              		.loc 1 717 1
 1360 017e 1846     		mov	r0, r3
 1361 0180 2037     		adds	r7, r7, #32
 1362              	.LCFI38:
 1363              		.cfi_def_cfa_offset 8
 1364 0182 BD46     		mov	sp, r7
 1365              	.LCFI39:
 1366              		.cfi_def_cfa_register 13
 1367              		@ sp needed
 1368 0184 80BD     		pop	{r7, pc}
 1369              	.L68:
 1370 0186 00BF     		.align	2
 1371              	.L67:
 1372 0188 00000000 		.word	SystemCoreClock
 1373 018c 83DE1B43 		.word	1125899907
 1374 0190 00000000 		.word	ADC_MultiModeDMAConvCplt
 1375 0194 00000000 		.word	ADC_MultiModeDMAHalfConvCplt
 1376 0198 00000000 		.word	ADC_MultiModeDMAError
 1377 019c 00230140 		.word	1073816320
 1378              		.cfi_endproc
 1379              	.LFE226:
 1381              		.section	.text.HAL_ADCEx_MultiModeStop_DMA,"ax",%progbits
 1382              		.align	1
 1383              		.global	HAL_ADCEx_MultiModeStop_DMA
 1384              		.syntax unified
 1385              		.thumb
 1386              		.thumb_func
 1388              	HAL_ADCEx_MultiModeStop_DMA:
 1389              	.LFB227:
 718:Drivers/STM32F4xx_HAL_Driver/Src/stm32f4xx_hal_adc_ex.c **** 
 719:Drivers/STM32F4xx_HAL_Driver/Src/stm32f4xx_hal_adc_ex.c **** /**
 720:Drivers/STM32F4xx_HAL_Driver/Src/stm32f4xx_hal_adc_ex.c ****   * @brief  Disables ADC DMA (multi-ADC mode) and disables ADC peripheral
 721:Drivers/STM32F4xx_HAL_Driver/Src/stm32f4xx_hal_adc_ex.c ****   * @param  hadc pointer to a ADC_HandleTypeDef structure that contains
ARM GAS  C:\Users\mauro\AppData\Local\Temp\cczNnVbS.s 			page 38


 722:Drivers/STM32F4xx_HAL_Driver/Src/stm32f4xx_hal_adc_ex.c ****   *         the configuration information for the specified ADC.
 723:Drivers/STM32F4xx_HAL_Driver/Src/stm32f4xx_hal_adc_ex.c ****   * @retval HAL status
 724:Drivers/STM32F4xx_HAL_Driver/Src/stm32f4xx_hal_adc_ex.c ****   */
 725:Drivers/STM32F4xx_HAL_Driver/Src/stm32f4xx_hal_adc_ex.c **** HAL_StatusTypeDef HAL_ADCEx_MultiModeStop_DMA(ADC_HandleTypeDef *hadc)
 726:Drivers/STM32F4xx_HAL_Driver/Src/stm32f4xx_hal_adc_ex.c **** {
 1390              		.loc 1 726 1
 1391              		.cfi_startproc
 1392              		@ args = 0, pretend = 0, frame = 16
 1393              		@ frame_needed = 1, uses_anonymous_args = 0
 1394 0000 80B5     		push	{r7, lr}
 1395              	.LCFI40:
 1396              		.cfi_def_cfa_offset 8
 1397              		.cfi_offset 7, -8
 1398              		.cfi_offset 14, -4
 1399 0002 84B0     		sub	sp, sp, #16
 1400              	.LCFI41:
 1401              		.cfi_def_cfa_offset 24
 1402 0004 00AF     		add	r7, sp, #0
 1403              	.LCFI42:
 1404              		.cfi_def_cfa_register 7
 1405 0006 7860     		str	r0, [r7, #4]
 727:Drivers/STM32F4xx_HAL_Driver/Src/stm32f4xx_hal_adc_ex.c ****   HAL_StatusTypeDef tmp_hal_status = HAL_OK;
 1406              		.loc 1 727 21
 1407 0008 0023     		movs	r3, #0
 1408 000a FB73     		strb	r3, [r7, #15]
 728:Drivers/STM32F4xx_HAL_Driver/Src/stm32f4xx_hal_adc_ex.c ****   ADC_Common_TypeDef *tmpADC_Common;
 729:Drivers/STM32F4xx_HAL_Driver/Src/stm32f4xx_hal_adc_ex.c **** 
 730:Drivers/STM32F4xx_HAL_Driver/Src/stm32f4xx_hal_adc_ex.c ****   /* Check the parameters */
 731:Drivers/STM32F4xx_HAL_Driver/Src/stm32f4xx_hal_adc_ex.c ****   assert_param(IS_ADC_ALL_INSTANCE(hadc->Instance));
 732:Drivers/STM32F4xx_HAL_Driver/Src/stm32f4xx_hal_adc_ex.c **** 
 733:Drivers/STM32F4xx_HAL_Driver/Src/stm32f4xx_hal_adc_ex.c ****   /* Process locked */
 734:Drivers/STM32F4xx_HAL_Driver/Src/stm32f4xx_hal_adc_ex.c ****   __HAL_LOCK(hadc);
 1409              		.loc 1 734 3
 1410 000c 7B68     		ldr	r3, [r7, #4]
 1411 000e 93F83C30 		ldrb	r3, [r3, #60]	@ zero_extendqisi2
 1412 0012 012B     		cmp	r3, #1
 1413 0014 01D1     		bne	.L70
 1414              		.loc 1 734 3 is_stmt 0 discriminator 1
 1415 0016 0223     		movs	r3, #2
 1416 0018 38E0     		b	.L71
 1417              	.L70:
 1418              		.loc 1 734 3 discriminator 2
 1419 001a 7B68     		ldr	r3, [r7, #4]
 1420 001c 0122     		movs	r2, #1
 1421 001e 83F83C20 		strb	r2, [r3, #60]
 735:Drivers/STM32F4xx_HAL_Driver/Src/stm32f4xx_hal_adc_ex.c **** 
 736:Drivers/STM32F4xx_HAL_Driver/Src/stm32f4xx_hal_adc_ex.c ****   /* Stop potential conversion on going, on regular and injected groups */
 737:Drivers/STM32F4xx_HAL_Driver/Src/stm32f4xx_hal_adc_ex.c ****   /* Disable ADC peripheral */
 738:Drivers/STM32F4xx_HAL_Driver/Src/stm32f4xx_hal_adc_ex.c ****   __HAL_ADC_DISABLE(hadc);
 1422              		.loc 1 738 3 is_stmt 1 discriminator 2
 1423 0022 7B68     		ldr	r3, [r7, #4]
 1424 0024 1B68     		ldr	r3, [r3]
 1425 0026 9A68     		ldr	r2, [r3, #8]
 1426 0028 7B68     		ldr	r3, [r7, #4]
 1427 002a 1B68     		ldr	r3, [r3]
 1428 002c 22F00102 		bic	r2, r2, #1
 1429 0030 9A60     		str	r2, [r3, #8]
ARM GAS  C:\Users\mauro\AppData\Local\Temp\cczNnVbS.s 			page 39


 739:Drivers/STM32F4xx_HAL_Driver/Src/stm32f4xx_hal_adc_ex.c **** 
 740:Drivers/STM32F4xx_HAL_Driver/Src/stm32f4xx_hal_adc_ex.c ****   /* Pointer to the common control register to which is belonging hadc    */
 741:Drivers/STM32F4xx_HAL_Driver/Src/stm32f4xx_hal_adc_ex.c ****   /* (Depending on STM32F4 product, there may be up to 3 ADC and 1 common */
 742:Drivers/STM32F4xx_HAL_Driver/Src/stm32f4xx_hal_adc_ex.c ****   /* control register)                                                    */
 743:Drivers/STM32F4xx_HAL_Driver/Src/stm32f4xx_hal_adc_ex.c ****   tmpADC_Common = ADC_COMMON_REGISTER(hadc);
 1430              		.loc 1 743 17 discriminator 2
 1431 0032 184B     		ldr	r3, .L73
 1432 0034 BB60     		str	r3, [r7, #8]
 744:Drivers/STM32F4xx_HAL_Driver/Src/stm32f4xx_hal_adc_ex.c **** 
 745:Drivers/STM32F4xx_HAL_Driver/Src/stm32f4xx_hal_adc_ex.c ****   /* Check if ADC is effectively disabled */
 746:Drivers/STM32F4xx_HAL_Driver/Src/stm32f4xx_hal_adc_ex.c ****   if (HAL_IS_BIT_CLR(hadc->Instance->CR2, ADC_CR2_ADON))
 1433              		.loc 1 746 7 discriminator 2
 1434 0036 7B68     		ldr	r3, [r7, #4]
 1435 0038 1B68     		ldr	r3, [r3]
 1436 003a 9B68     		ldr	r3, [r3, #8]
 1437 003c 03F00103 		and	r3, r3, #1
 1438              		.loc 1 746 6 discriminator 2
 1439 0040 002B     		cmp	r3, #0
 1440 0042 1ED1     		bne	.L72
 747:Drivers/STM32F4xx_HAL_Driver/Src/stm32f4xx_hal_adc_ex.c ****   {
 748:Drivers/STM32F4xx_HAL_Driver/Src/stm32f4xx_hal_adc_ex.c ****     /* Disable the selected ADC DMA mode for multimode */
 749:Drivers/STM32F4xx_HAL_Driver/Src/stm32f4xx_hal_adc_ex.c ****     tmpADC_Common->CCR &= ~ADC_CCR_DDS;
 1441              		.loc 1 749 24
 1442 0044 BB68     		ldr	r3, [r7, #8]
 1443 0046 5B68     		ldr	r3, [r3, #4]
 1444 0048 23F40052 		bic	r2, r3, #8192
 1445 004c BB68     		ldr	r3, [r7, #8]
 1446 004e 5A60     		str	r2, [r3, #4]
 750:Drivers/STM32F4xx_HAL_Driver/Src/stm32f4xx_hal_adc_ex.c **** 
 751:Drivers/STM32F4xx_HAL_Driver/Src/stm32f4xx_hal_adc_ex.c ****     /* Disable the DMA channel (in case of DMA in circular mode or stop while */
 752:Drivers/STM32F4xx_HAL_Driver/Src/stm32f4xx_hal_adc_ex.c ****     /* DMA transfer is on going)                                              */
 753:Drivers/STM32F4xx_HAL_Driver/Src/stm32f4xx_hal_adc_ex.c ****     tmp_hal_status = HAL_DMA_Abort(hadc->DMA_Handle);
 1447              		.loc 1 753 22
 1448 0050 7B68     		ldr	r3, [r7, #4]
 1449 0052 9B6B     		ldr	r3, [r3, #56]
 1450 0054 1846     		mov	r0, r3
 1451 0056 FFF7FEFF 		bl	HAL_DMA_Abort
 1452 005a 0346     		mov	r3, r0
 1453 005c FB73     		strb	r3, [r7, #15]
 754:Drivers/STM32F4xx_HAL_Driver/Src/stm32f4xx_hal_adc_ex.c **** 
 755:Drivers/STM32F4xx_HAL_Driver/Src/stm32f4xx_hal_adc_ex.c ****     /* Disable ADC overrun interrupt */
 756:Drivers/STM32F4xx_HAL_Driver/Src/stm32f4xx_hal_adc_ex.c ****     __HAL_ADC_DISABLE_IT(hadc, ADC_IT_OVR);
 1454              		.loc 1 756 5
 1455 005e 7B68     		ldr	r3, [r7, #4]
 1456 0060 1B68     		ldr	r3, [r3]
 1457 0062 5A68     		ldr	r2, [r3, #4]
 1458 0064 7B68     		ldr	r3, [r7, #4]
 1459 0066 1B68     		ldr	r3, [r3]
 1460 0068 22F08062 		bic	r2, r2, #67108864
 1461 006c 5A60     		str	r2, [r3, #4]
 757:Drivers/STM32F4xx_HAL_Driver/Src/stm32f4xx_hal_adc_ex.c **** 
 758:Drivers/STM32F4xx_HAL_Driver/Src/stm32f4xx_hal_adc_ex.c ****     /* Set ADC state */
 759:Drivers/STM32F4xx_HAL_Driver/Src/stm32f4xx_hal_adc_ex.c ****     ADC_STATE_CLR_SET(hadc->State,
 1462              		.loc 1 759 5
 1463 006e 7B68     		ldr	r3, [r7, #4]
 1464 0070 1B6C     		ldr	r3, [r3, #64]
 1465 0072 23F48853 		bic	r3, r3, #4352
ARM GAS  C:\Users\mauro\AppData\Local\Temp\cczNnVbS.s 			page 40


 1466 0076 23F00103 		bic	r3, r3, #1
 1467 007a 43F00102 		orr	r2, r3, #1
 1468 007e 7B68     		ldr	r3, [r7, #4]
 1469 0080 1A64     		str	r2, [r3, #64]
 1470              	.L72:
 760:Drivers/STM32F4xx_HAL_Driver/Src/stm32f4xx_hal_adc_ex.c ****                       HAL_ADC_STATE_REG_BUSY | HAL_ADC_STATE_INJ_BUSY,
 761:Drivers/STM32F4xx_HAL_Driver/Src/stm32f4xx_hal_adc_ex.c ****                       HAL_ADC_STATE_READY);
 762:Drivers/STM32F4xx_HAL_Driver/Src/stm32f4xx_hal_adc_ex.c ****   }
 763:Drivers/STM32F4xx_HAL_Driver/Src/stm32f4xx_hal_adc_ex.c **** 
 764:Drivers/STM32F4xx_HAL_Driver/Src/stm32f4xx_hal_adc_ex.c ****   /* Process unlocked */
 765:Drivers/STM32F4xx_HAL_Driver/Src/stm32f4xx_hal_adc_ex.c ****   __HAL_UNLOCK(hadc);
 1471              		.loc 1 765 3
 1472 0082 7B68     		ldr	r3, [r7, #4]
 1473 0084 0022     		movs	r2, #0
 1474 0086 83F83C20 		strb	r2, [r3, #60]
 766:Drivers/STM32F4xx_HAL_Driver/Src/stm32f4xx_hal_adc_ex.c **** 
 767:Drivers/STM32F4xx_HAL_Driver/Src/stm32f4xx_hal_adc_ex.c ****   /* Return function status */
 768:Drivers/STM32F4xx_HAL_Driver/Src/stm32f4xx_hal_adc_ex.c ****   return tmp_hal_status;
 1475              		.loc 1 768 10
 1476 008a FB7B     		ldrb	r3, [r7, #15]	@ zero_extendqisi2
 1477              	.L71:
 769:Drivers/STM32F4xx_HAL_Driver/Src/stm32f4xx_hal_adc_ex.c **** }
 1478              		.loc 1 769 1
 1479 008c 1846     		mov	r0, r3
 1480 008e 1037     		adds	r7, r7, #16
 1481              	.LCFI43:
 1482              		.cfi_def_cfa_offset 8
 1483 0090 BD46     		mov	sp, r7
 1484              	.LCFI44:
 1485              		.cfi_def_cfa_register 13
 1486              		@ sp needed
 1487 0092 80BD     		pop	{r7, pc}
 1488              	.L74:
 1489              		.align	2
 1490              	.L73:
 1491 0094 00230140 		.word	1073816320
 1492              		.cfi_endproc
 1493              	.LFE227:
 1495              		.section	.text.HAL_ADCEx_MultiModeGetValue,"ax",%progbits
 1496              		.align	1
 1497              		.global	HAL_ADCEx_MultiModeGetValue
 1498              		.syntax unified
 1499              		.thumb
 1500              		.thumb_func
 1502              	HAL_ADCEx_MultiModeGetValue:
 1503              	.LFB228:
 770:Drivers/STM32F4xx_HAL_Driver/Src/stm32f4xx_hal_adc_ex.c **** 
 771:Drivers/STM32F4xx_HAL_Driver/Src/stm32f4xx_hal_adc_ex.c **** /**
 772:Drivers/STM32F4xx_HAL_Driver/Src/stm32f4xx_hal_adc_ex.c ****   * @brief  Returns the last ADC1, ADC2 and ADC3 regular conversions results
 773:Drivers/STM32F4xx_HAL_Driver/Src/stm32f4xx_hal_adc_ex.c ****   *         data in the selected multi mode.
 774:Drivers/STM32F4xx_HAL_Driver/Src/stm32f4xx_hal_adc_ex.c ****   * @param  hadc pointer to a ADC_HandleTypeDef structure that contains
 775:Drivers/STM32F4xx_HAL_Driver/Src/stm32f4xx_hal_adc_ex.c ****   *         the configuration information for the specified ADC.
 776:Drivers/STM32F4xx_HAL_Driver/Src/stm32f4xx_hal_adc_ex.c ****   * @retval The converted data value.
 777:Drivers/STM32F4xx_HAL_Driver/Src/stm32f4xx_hal_adc_ex.c ****   */
 778:Drivers/STM32F4xx_HAL_Driver/Src/stm32f4xx_hal_adc_ex.c **** uint32_t HAL_ADCEx_MultiModeGetValue(ADC_HandleTypeDef *hadc)
 779:Drivers/STM32F4xx_HAL_Driver/Src/stm32f4xx_hal_adc_ex.c **** {
 1504              		.loc 1 779 1
ARM GAS  C:\Users\mauro\AppData\Local\Temp\cczNnVbS.s 			page 41


 1505              		.cfi_startproc
 1506              		@ args = 0, pretend = 0, frame = 16
 1507              		@ frame_needed = 1, uses_anonymous_args = 0
 1508              		@ link register save eliminated.
 1509 0000 80B4     		push	{r7}
 1510              	.LCFI45:
 1511              		.cfi_def_cfa_offset 4
 1512              		.cfi_offset 7, -4
 1513 0002 85B0     		sub	sp, sp, #20
 1514              	.LCFI46:
 1515              		.cfi_def_cfa_offset 24
 1516 0004 00AF     		add	r7, sp, #0
 1517              	.LCFI47:
 1518              		.cfi_def_cfa_register 7
 1519 0006 7860     		str	r0, [r7, #4]
 780:Drivers/STM32F4xx_HAL_Driver/Src/stm32f4xx_hal_adc_ex.c ****   ADC_Common_TypeDef *tmpADC_Common;
 781:Drivers/STM32F4xx_HAL_Driver/Src/stm32f4xx_hal_adc_ex.c **** 
 782:Drivers/STM32F4xx_HAL_Driver/Src/stm32f4xx_hal_adc_ex.c ****   /* Prevent unused argument(s) compilation warning */
 783:Drivers/STM32F4xx_HAL_Driver/Src/stm32f4xx_hal_adc_ex.c ****   UNUSED(hadc);
 784:Drivers/STM32F4xx_HAL_Driver/Src/stm32f4xx_hal_adc_ex.c **** 
 785:Drivers/STM32F4xx_HAL_Driver/Src/stm32f4xx_hal_adc_ex.c ****   /* Pointer to the common control register to which is belonging hadc    */
 786:Drivers/STM32F4xx_HAL_Driver/Src/stm32f4xx_hal_adc_ex.c ****   /* (Depending on STM32F4 product, there may be up to 3 ADC and 1 common */
 787:Drivers/STM32F4xx_HAL_Driver/Src/stm32f4xx_hal_adc_ex.c ****   /* control register)                                                    */
 788:Drivers/STM32F4xx_HAL_Driver/Src/stm32f4xx_hal_adc_ex.c ****   tmpADC_Common = ADC_COMMON_REGISTER(hadc);
 1520              		.loc 1 788 17
 1521 0008 044B     		ldr	r3, .L77
 1522 000a FB60     		str	r3, [r7, #12]
 789:Drivers/STM32F4xx_HAL_Driver/Src/stm32f4xx_hal_adc_ex.c **** 
 790:Drivers/STM32F4xx_HAL_Driver/Src/stm32f4xx_hal_adc_ex.c ****   /* Return the multi mode conversion value */
 791:Drivers/STM32F4xx_HAL_Driver/Src/stm32f4xx_hal_adc_ex.c ****   return tmpADC_Common->CDR;
 1523              		.loc 1 791 23
 1524 000c FB68     		ldr	r3, [r7, #12]
 1525 000e 9B68     		ldr	r3, [r3, #8]
 792:Drivers/STM32F4xx_HAL_Driver/Src/stm32f4xx_hal_adc_ex.c **** }
 1526              		.loc 1 792 1
 1527 0010 1846     		mov	r0, r3
 1528 0012 1437     		adds	r7, r7, #20
 1529              	.LCFI48:
 1530              		.cfi_def_cfa_offset 4
 1531 0014 BD46     		mov	sp, r7
 1532              	.LCFI49:
 1533              		.cfi_def_cfa_register 13
 1534              		@ sp needed
 1535 0016 5DF8047B 		ldr	r7, [sp], #4
 1536              	.LCFI50:
 1537              		.cfi_restore 7
 1538              		.cfi_def_cfa_offset 0
 1539 001a 7047     		bx	lr
 1540              	.L78:
 1541              		.align	2
 1542              	.L77:
 1543 001c 00230140 		.word	1073816320
 1544              		.cfi_endproc
 1545              	.LFE228:
 1547              		.section	.text.HAL_ADCEx_InjectedConvCpltCallback,"ax",%progbits
 1548              		.align	1
 1549              		.weak	HAL_ADCEx_InjectedConvCpltCallback
ARM GAS  C:\Users\mauro\AppData\Local\Temp\cczNnVbS.s 			page 42


 1550              		.syntax unified
 1551              		.thumb
 1552              		.thumb_func
 1554              	HAL_ADCEx_InjectedConvCpltCallback:
 1555              	.LFB229:
 793:Drivers/STM32F4xx_HAL_Driver/Src/stm32f4xx_hal_adc_ex.c **** 
 794:Drivers/STM32F4xx_HAL_Driver/Src/stm32f4xx_hal_adc_ex.c **** /**
 795:Drivers/STM32F4xx_HAL_Driver/Src/stm32f4xx_hal_adc_ex.c ****   * @brief  Injected conversion complete callback in non blocking mode
 796:Drivers/STM32F4xx_HAL_Driver/Src/stm32f4xx_hal_adc_ex.c ****   * @param  hadc pointer to a ADC_HandleTypeDef structure that contains
 797:Drivers/STM32F4xx_HAL_Driver/Src/stm32f4xx_hal_adc_ex.c ****   *         the configuration information for the specified ADC.
 798:Drivers/STM32F4xx_HAL_Driver/Src/stm32f4xx_hal_adc_ex.c ****   * @retval None
 799:Drivers/STM32F4xx_HAL_Driver/Src/stm32f4xx_hal_adc_ex.c ****   */
 800:Drivers/STM32F4xx_HAL_Driver/Src/stm32f4xx_hal_adc_ex.c **** __weak void HAL_ADCEx_InjectedConvCpltCallback(ADC_HandleTypeDef *hadc)
 801:Drivers/STM32F4xx_HAL_Driver/Src/stm32f4xx_hal_adc_ex.c **** {
 1556              		.loc 1 801 1
 1557              		.cfi_startproc
 1558              		@ args = 0, pretend = 0, frame = 8
 1559              		@ frame_needed = 1, uses_anonymous_args = 0
 1560              		@ link register save eliminated.
 1561 0000 80B4     		push	{r7}
 1562              	.LCFI51:
 1563              		.cfi_def_cfa_offset 4
 1564              		.cfi_offset 7, -4
 1565 0002 83B0     		sub	sp, sp, #12
 1566              	.LCFI52:
 1567              		.cfi_def_cfa_offset 16
 1568 0004 00AF     		add	r7, sp, #0
 1569              	.LCFI53:
 1570              		.cfi_def_cfa_register 7
 1571 0006 7860     		str	r0, [r7, #4]
 802:Drivers/STM32F4xx_HAL_Driver/Src/stm32f4xx_hal_adc_ex.c ****   /* Prevent unused argument(s) compilation warning */
 803:Drivers/STM32F4xx_HAL_Driver/Src/stm32f4xx_hal_adc_ex.c ****   UNUSED(hadc);
 804:Drivers/STM32F4xx_HAL_Driver/Src/stm32f4xx_hal_adc_ex.c ****   /* NOTE : This function Should not be modified, when the callback is needed,
 805:Drivers/STM32F4xx_HAL_Driver/Src/stm32f4xx_hal_adc_ex.c ****             the HAL_ADC_InjectedConvCpltCallback could be implemented in the user file
 806:Drivers/STM32F4xx_HAL_Driver/Src/stm32f4xx_hal_adc_ex.c ****    */
 807:Drivers/STM32F4xx_HAL_Driver/Src/stm32f4xx_hal_adc_ex.c **** }
 1572              		.loc 1 807 1
 1573 0008 00BF     		nop
 1574 000a 0C37     		adds	r7, r7, #12
 1575              	.LCFI54:
 1576              		.cfi_def_cfa_offset 4
 1577 000c BD46     		mov	sp, r7
 1578              	.LCFI55:
 1579              		.cfi_def_cfa_register 13
 1580              		@ sp needed
 1581 000e 5DF8047B 		ldr	r7, [sp], #4
 1582              	.LCFI56:
 1583              		.cfi_restore 7
 1584              		.cfi_def_cfa_offset 0
 1585 0012 7047     		bx	lr
 1586              		.cfi_endproc
 1587              	.LFE229:
 1589              		.section	.text.HAL_ADCEx_InjectedConfigChannel,"ax",%progbits
 1590              		.align	1
 1591              		.global	HAL_ADCEx_InjectedConfigChannel
 1592              		.syntax unified
 1593              		.thumb
ARM GAS  C:\Users\mauro\AppData\Local\Temp\cczNnVbS.s 			page 43


 1594              		.thumb_func
 1596              	HAL_ADCEx_InjectedConfigChannel:
 1597              	.LFB230:
 808:Drivers/STM32F4xx_HAL_Driver/Src/stm32f4xx_hal_adc_ex.c **** 
 809:Drivers/STM32F4xx_HAL_Driver/Src/stm32f4xx_hal_adc_ex.c **** /**
 810:Drivers/STM32F4xx_HAL_Driver/Src/stm32f4xx_hal_adc_ex.c ****   * @brief  Configures for the selected ADC injected channel its corresponding
 811:Drivers/STM32F4xx_HAL_Driver/Src/stm32f4xx_hal_adc_ex.c ****   *         rank in the sequencer and its sample time.
 812:Drivers/STM32F4xx_HAL_Driver/Src/stm32f4xx_hal_adc_ex.c ****   * @param  hadc pointer to a ADC_HandleTypeDef structure that contains
 813:Drivers/STM32F4xx_HAL_Driver/Src/stm32f4xx_hal_adc_ex.c ****   *         the configuration information for the specified ADC.
 814:Drivers/STM32F4xx_HAL_Driver/Src/stm32f4xx_hal_adc_ex.c ****   * @param  sConfigInjected ADC configuration structure for injected channel.
 815:Drivers/STM32F4xx_HAL_Driver/Src/stm32f4xx_hal_adc_ex.c ****   * @retval None
 816:Drivers/STM32F4xx_HAL_Driver/Src/stm32f4xx_hal_adc_ex.c ****   */
 817:Drivers/STM32F4xx_HAL_Driver/Src/stm32f4xx_hal_adc_ex.c **** HAL_StatusTypeDef HAL_ADCEx_InjectedConfigChannel(ADC_HandleTypeDef *hadc, ADC_InjectionConfTypeDef
 818:Drivers/STM32F4xx_HAL_Driver/Src/stm32f4xx_hal_adc_ex.c **** {
 1598              		.loc 1 818 1
 1599              		.cfi_startproc
 1600              		@ args = 0, pretend = 0, frame = 16
 1601              		@ frame_needed = 1, uses_anonymous_args = 0
 1602              		@ link register save eliminated.
 1603 0000 80B4     		push	{r7}
 1604              	.LCFI57:
 1605              		.cfi_def_cfa_offset 4
 1606              		.cfi_offset 7, -4
 1607 0002 85B0     		sub	sp, sp, #20
 1608              	.LCFI58:
 1609              		.cfi_def_cfa_offset 24
 1610 0004 00AF     		add	r7, sp, #0
 1611              	.LCFI59:
 1612              		.cfi_def_cfa_register 7
 1613 0006 7860     		str	r0, [r7, #4]
 1614 0008 3960     		str	r1, [r7]
 819:Drivers/STM32F4xx_HAL_Driver/Src/stm32f4xx_hal_adc_ex.c **** 
 820:Drivers/STM32F4xx_HAL_Driver/Src/stm32f4xx_hal_adc_ex.c **** #ifdef USE_FULL_ASSERT
 821:Drivers/STM32F4xx_HAL_Driver/Src/stm32f4xx_hal_adc_ex.c ****   uint32_t tmp = 0U;
 822:Drivers/STM32F4xx_HAL_Driver/Src/stm32f4xx_hal_adc_ex.c **** 
 823:Drivers/STM32F4xx_HAL_Driver/Src/stm32f4xx_hal_adc_ex.c **** #endif /* USE_FULL_ASSERT  */
 824:Drivers/STM32F4xx_HAL_Driver/Src/stm32f4xx_hal_adc_ex.c **** 
 825:Drivers/STM32F4xx_HAL_Driver/Src/stm32f4xx_hal_adc_ex.c ****   ADC_Common_TypeDef *tmpADC_Common;
 826:Drivers/STM32F4xx_HAL_Driver/Src/stm32f4xx_hal_adc_ex.c **** 
 827:Drivers/STM32F4xx_HAL_Driver/Src/stm32f4xx_hal_adc_ex.c ****   /* Check the parameters */
 828:Drivers/STM32F4xx_HAL_Driver/Src/stm32f4xx_hal_adc_ex.c ****   assert_param(IS_ADC_CHANNEL(sConfigInjected->InjectedChannel));
 829:Drivers/STM32F4xx_HAL_Driver/Src/stm32f4xx_hal_adc_ex.c ****   assert_param(IS_ADC_INJECTED_RANK(sConfigInjected->InjectedRank));
 830:Drivers/STM32F4xx_HAL_Driver/Src/stm32f4xx_hal_adc_ex.c ****   assert_param(IS_ADC_SAMPLE_TIME(sConfigInjected->InjectedSamplingTime));
 831:Drivers/STM32F4xx_HAL_Driver/Src/stm32f4xx_hal_adc_ex.c ****   assert_param(IS_ADC_EXT_INJEC_TRIG(sConfigInjected->ExternalTrigInjecConv));
 832:Drivers/STM32F4xx_HAL_Driver/Src/stm32f4xx_hal_adc_ex.c ****   assert_param(IS_ADC_INJECTED_LENGTH(sConfigInjected->InjectedNbrOfConversion));
 833:Drivers/STM32F4xx_HAL_Driver/Src/stm32f4xx_hal_adc_ex.c ****   assert_param(IS_FUNCTIONAL_STATE(sConfigInjected->AutoInjectedConv));
 834:Drivers/STM32F4xx_HAL_Driver/Src/stm32f4xx_hal_adc_ex.c ****   assert_param(IS_FUNCTIONAL_STATE(sConfigInjected->InjectedDiscontinuousConvMode));
 835:Drivers/STM32F4xx_HAL_Driver/Src/stm32f4xx_hal_adc_ex.c **** 
 836:Drivers/STM32F4xx_HAL_Driver/Src/stm32f4xx_hal_adc_ex.c **** #ifdef USE_FULL_ASSERT
 837:Drivers/STM32F4xx_HAL_Driver/Src/stm32f4xx_hal_adc_ex.c ****   tmp = ADC_GET_RESOLUTION(hadc);
 838:Drivers/STM32F4xx_HAL_Driver/Src/stm32f4xx_hal_adc_ex.c ****   assert_param(IS_ADC_RANGE(tmp, sConfigInjected->InjectedOffset));
 839:Drivers/STM32F4xx_HAL_Driver/Src/stm32f4xx_hal_adc_ex.c **** #endif /* USE_FULL_ASSERT  */
 840:Drivers/STM32F4xx_HAL_Driver/Src/stm32f4xx_hal_adc_ex.c **** 
 841:Drivers/STM32F4xx_HAL_Driver/Src/stm32f4xx_hal_adc_ex.c ****   if (sConfigInjected->ExternalTrigInjecConv != ADC_INJECTED_SOFTWARE_START)
 842:Drivers/STM32F4xx_HAL_Driver/Src/stm32f4xx_hal_adc_ex.c ****   {
 843:Drivers/STM32F4xx_HAL_Driver/Src/stm32f4xx_hal_adc_ex.c ****     assert_param(IS_ADC_EXT_INJEC_TRIG_EDGE(sConfigInjected->ExternalTrigInjecConvEdge));
 844:Drivers/STM32F4xx_HAL_Driver/Src/stm32f4xx_hal_adc_ex.c ****   }
ARM GAS  C:\Users\mauro\AppData\Local\Temp\cczNnVbS.s 			page 44


 845:Drivers/STM32F4xx_HAL_Driver/Src/stm32f4xx_hal_adc_ex.c **** 
 846:Drivers/STM32F4xx_HAL_Driver/Src/stm32f4xx_hal_adc_ex.c ****   /* Process locked */
 847:Drivers/STM32F4xx_HAL_Driver/Src/stm32f4xx_hal_adc_ex.c ****   __HAL_LOCK(hadc);
 1615              		.loc 1 847 3
 1616 000a 7B68     		ldr	r3, [r7, #4]
 1617 000c 93F83C30 		ldrb	r3, [r3, #60]	@ zero_extendqisi2
 1618 0010 012B     		cmp	r3, #1
 1619 0012 01D1     		bne	.L81
 1620              		.loc 1 847 3 is_stmt 0 discriminator 1
 1621 0014 0223     		movs	r3, #2
 1622 0016 7EE1     		b	.L82
 1623              	.L81:
 1624              		.loc 1 847 3 discriminator 2
 1625 0018 7B68     		ldr	r3, [r7, #4]
 1626 001a 0122     		movs	r2, #1
 1627 001c 83F83C20 		strb	r2, [r3, #60]
 848:Drivers/STM32F4xx_HAL_Driver/Src/stm32f4xx_hal_adc_ex.c **** 
 849:Drivers/STM32F4xx_HAL_Driver/Src/stm32f4xx_hal_adc_ex.c ****   /* if ADC_Channel_10 ... ADC_Channel_18 is selected */
 850:Drivers/STM32F4xx_HAL_Driver/Src/stm32f4xx_hal_adc_ex.c ****   if (sConfigInjected->InjectedChannel > ADC_CHANNEL_9)
 1628              		.loc 1 850 22 is_stmt 1 discriminator 2
 1629 0020 3B68     		ldr	r3, [r7]
 1630 0022 1B68     		ldr	r3, [r3]
 1631              		.loc 1 850 6 discriminator 2
 1632 0024 092B     		cmp	r3, #9
 1633 0026 25D9     		bls	.L83
 851:Drivers/STM32F4xx_HAL_Driver/Src/stm32f4xx_hal_adc_ex.c ****   {
 852:Drivers/STM32F4xx_HAL_Driver/Src/stm32f4xx_hal_adc_ex.c ****     /* Clear the old sample time */
 853:Drivers/STM32F4xx_HAL_Driver/Src/stm32f4xx_hal_adc_ex.c ****     hadc->Instance->SMPR1 &= ~ADC_SMPR1(ADC_SMPR1_SMP10, sConfigInjected->InjectedChannel);
 1634              		.loc 1 853 9
 1635 0028 7B68     		ldr	r3, [r7, #4]
 1636 002a 1B68     		ldr	r3, [r3]
 1637              		.loc 1 853 27
 1638 002c D968     		ldr	r1, [r3, #12]
 1639              		.loc 1 853 31
 1640 002e 3B68     		ldr	r3, [r7]
 1641 0030 1B68     		ldr	r3, [r3]
 1642 0032 9BB2     		uxth	r3, r3
 1643 0034 1A46     		mov	r2, r3
 1644 0036 1346     		mov	r3, r2
 1645 0038 5B00     		lsls	r3, r3, #1
 1646 003a 1344     		add	r3, r3, r2
 1647 003c 1E3B     		subs	r3, r3, #30
 1648 003e 0722     		movs	r2, #7
 1649 0040 02FA03F3 		lsl	r3, r2, r3
 1650              		.loc 1 853 30
 1651 0044 DA43     		mvns	r2, r3
 1652              		.loc 1 853 9
 1653 0046 7B68     		ldr	r3, [r7, #4]
 1654 0048 1B68     		ldr	r3, [r3]
 1655              		.loc 1 853 27
 1656 004a 0A40     		ands	r2, r2, r1
 1657 004c DA60     		str	r2, [r3, #12]
 854:Drivers/STM32F4xx_HAL_Driver/Src/stm32f4xx_hal_adc_ex.c **** 
 855:Drivers/STM32F4xx_HAL_Driver/Src/stm32f4xx_hal_adc_ex.c ****     /* Set the new sample time */
 856:Drivers/STM32F4xx_HAL_Driver/Src/stm32f4xx_hal_adc_ex.c ****     hadc->Instance->SMPR1 |= ADC_SMPR1(sConfigInjected->InjectedSamplingTime, sConfigInjected->Inje
 1658              		.loc 1 856 9
 1659 004e 7B68     		ldr	r3, [r7, #4]
ARM GAS  C:\Users\mauro\AppData\Local\Temp\cczNnVbS.s 			page 45


 1660 0050 1B68     		ldr	r3, [r3]
 1661              		.loc 1 856 27
 1662 0052 D968     		ldr	r1, [r3, #12]
 1663              		.loc 1 856 30
 1664 0054 3B68     		ldr	r3, [r7]
 1665 0056 9A68     		ldr	r2, [r3, #8]
 1666 0058 3B68     		ldr	r3, [r7]
 1667 005a 1B68     		ldr	r3, [r3]
 1668 005c 9BB2     		uxth	r3, r3
 1669 005e 1846     		mov	r0, r3
 1670 0060 0346     		mov	r3, r0
 1671 0062 5B00     		lsls	r3, r3, #1
 1672 0064 0344     		add	r3, r3, r0
 1673 0066 1E3B     		subs	r3, r3, #30
 1674 0068 9A40     		lsls	r2, r2, r3
 1675              		.loc 1 856 9
 1676 006a 7B68     		ldr	r3, [r7, #4]
 1677 006c 1B68     		ldr	r3, [r3]
 1678              		.loc 1 856 27
 1679 006e 0A43     		orrs	r2, r2, r1
 1680 0070 DA60     		str	r2, [r3, #12]
 1681 0072 22E0     		b	.L84
 1682              	.L83:
 857:Drivers/STM32F4xx_HAL_Driver/Src/stm32f4xx_hal_adc_ex.c ****   }
 858:Drivers/STM32F4xx_HAL_Driver/Src/stm32f4xx_hal_adc_ex.c ****   else /* ADC_Channel include in ADC_Channel_[0..9] */
 859:Drivers/STM32F4xx_HAL_Driver/Src/stm32f4xx_hal_adc_ex.c ****   {
 860:Drivers/STM32F4xx_HAL_Driver/Src/stm32f4xx_hal_adc_ex.c ****     /* Clear the old sample time */
 861:Drivers/STM32F4xx_HAL_Driver/Src/stm32f4xx_hal_adc_ex.c ****     hadc->Instance->SMPR2 &= ~ADC_SMPR2(ADC_SMPR2_SMP0, sConfigInjected->InjectedChannel);
 1683              		.loc 1 861 9
 1684 0074 7B68     		ldr	r3, [r7, #4]
 1685 0076 1B68     		ldr	r3, [r3]
 1686              		.loc 1 861 27
 1687 0078 1969     		ldr	r1, [r3, #16]
 1688              		.loc 1 861 31
 1689 007a 3B68     		ldr	r3, [r7]
 1690 007c 1B68     		ldr	r3, [r3]
 1691 007e 9BB2     		uxth	r3, r3
 1692 0080 1A46     		mov	r2, r3
 1693 0082 1346     		mov	r3, r2
 1694 0084 5B00     		lsls	r3, r3, #1
 1695 0086 1344     		add	r3, r3, r2
 1696 0088 0722     		movs	r2, #7
 1697 008a 02FA03F3 		lsl	r3, r2, r3
 1698              		.loc 1 861 30
 1699 008e DA43     		mvns	r2, r3
 1700              		.loc 1 861 9
 1701 0090 7B68     		ldr	r3, [r7, #4]
 1702 0092 1B68     		ldr	r3, [r3]
 1703              		.loc 1 861 27
 1704 0094 0A40     		ands	r2, r2, r1
 1705 0096 1A61     		str	r2, [r3, #16]
 862:Drivers/STM32F4xx_HAL_Driver/Src/stm32f4xx_hal_adc_ex.c **** 
 863:Drivers/STM32F4xx_HAL_Driver/Src/stm32f4xx_hal_adc_ex.c ****     /* Set the new sample time */
 864:Drivers/STM32F4xx_HAL_Driver/Src/stm32f4xx_hal_adc_ex.c ****     hadc->Instance->SMPR2 |= ADC_SMPR2(sConfigInjected->InjectedSamplingTime, sConfigInjected->Inje
 1706              		.loc 1 864 9
 1707 0098 7B68     		ldr	r3, [r7, #4]
 1708 009a 1B68     		ldr	r3, [r3]
ARM GAS  C:\Users\mauro\AppData\Local\Temp\cczNnVbS.s 			page 46


 1709              		.loc 1 864 27
 1710 009c 1969     		ldr	r1, [r3, #16]
 1711              		.loc 1 864 30
 1712 009e 3B68     		ldr	r3, [r7]
 1713 00a0 9A68     		ldr	r2, [r3, #8]
 1714 00a2 3B68     		ldr	r3, [r7]
 1715 00a4 1B68     		ldr	r3, [r3]
 1716 00a6 9BB2     		uxth	r3, r3
 1717 00a8 1846     		mov	r0, r3
 1718 00aa 0346     		mov	r3, r0
 1719 00ac 5B00     		lsls	r3, r3, #1
 1720 00ae 0344     		add	r3, r3, r0
 1721 00b0 9A40     		lsls	r2, r2, r3
 1722              		.loc 1 864 9
 1723 00b2 7B68     		ldr	r3, [r7, #4]
 1724 00b4 1B68     		ldr	r3, [r3]
 1725              		.loc 1 864 27
 1726 00b6 0A43     		orrs	r2, r2, r1
 1727 00b8 1A61     		str	r2, [r3, #16]
 1728              	.L84:
 865:Drivers/STM32F4xx_HAL_Driver/Src/stm32f4xx_hal_adc_ex.c ****   }
 866:Drivers/STM32F4xx_HAL_Driver/Src/stm32f4xx_hal_adc_ex.c **** 
 867:Drivers/STM32F4xx_HAL_Driver/Src/stm32f4xx_hal_adc_ex.c ****   /*---------------------------- ADCx JSQR Configuration -----------------*/
 868:Drivers/STM32F4xx_HAL_Driver/Src/stm32f4xx_hal_adc_ex.c ****   hadc->Instance->JSQR &= ~(ADC_JSQR_JL);
 1729              		.loc 1 868 7
 1730 00ba 7B68     		ldr	r3, [r7, #4]
 1731 00bc 1B68     		ldr	r3, [r3]
 1732              		.loc 1 868 24
 1733 00be 9A6B     		ldr	r2, [r3, #56]
 1734              		.loc 1 868 7
 1735 00c0 7B68     		ldr	r3, [r7, #4]
 1736 00c2 1B68     		ldr	r3, [r3]
 1737              		.loc 1 868 24
 1738 00c4 22F44012 		bic	r2, r2, #3145728
 1739 00c8 9A63     		str	r2, [r3, #56]
 869:Drivers/STM32F4xx_HAL_Driver/Src/stm32f4xx_hal_adc_ex.c ****   hadc->Instance->JSQR |=  ADC_SQR1(sConfigInjected->InjectedNbrOfConversion);
 1740              		.loc 1 869 7
 1741 00ca 7B68     		ldr	r3, [r7, #4]
 1742 00cc 1B68     		ldr	r3, [r3]
 1743              		.loc 1 869 24
 1744 00ce 996B     		ldr	r1, [r3, #56]
 1745              		.loc 1 869 28
 1746 00d0 3B68     		ldr	r3, [r7]
 1747 00d2 1B69     		ldr	r3, [r3, #16]
 1748 00d4 013B     		subs	r3, r3, #1
 1749 00d6 1A05     		lsls	r2, r3, #20
 1750              		.loc 1 869 7
 1751 00d8 7B68     		ldr	r3, [r7, #4]
 1752 00da 1B68     		ldr	r3, [r3]
 1753              		.loc 1 869 24
 1754 00dc 0A43     		orrs	r2, r2, r1
 1755 00de 9A63     		str	r2, [r3, #56]
 870:Drivers/STM32F4xx_HAL_Driver/Src/stm32f4xx_hal_adc_ex.c **** 
 871:Drivers/STM32F4xx_HAL_Driver/Src/stm32f4xx_hal_adc_ex.c ****   /* Rank configuration */
 872:Drivers/STM32F4xx_HAL_Driver/Src/stm32f4xx_hal_adc_ex.c **** 
 873:Drivers/STM32F4xx_HAL_Driver/Src/stm32f4xx_hal_adc_ex.c ****   /* Clear the old SQx bits for the selected rank */
 874:Drivers/STM32F4xx_HAL_Driver/Src/stm32f4xx_hal_adc_ex.c ****   hadc->Instance->JSQR &= ~ADC_JSQR(ADC_JSQR_JSQ1, sConfigInjected->InjectedRank, sConfigInjected->
ARM GAS  C:\Users\mauro\AppData\Local\Temp\cczNnVbS.s 			page 47


 1756              		.loc 1 874 7
 1757 00e0 7B68     		ldr	r3, [r7, #4]
 1758 00e2 1B68     		ldr	r3, [r3]
 1759              		.loc 1 874 24
 1760 00e4 996B     		ldr	r1, [r3, #56]
 1761              		.loc 1 874 28
 1762 00e6 3B68     		ldr	r3, [r7]
 1763 00e8 5B68     		ldr	r3, [r3, #4]
 1764 00ea DAB2     		uxtb	r2, r3
 1765 00ec 3B68     		ldr	r3, [r7]
 1766 00ee 1B69     		ldr	r3, [r3, #16]
 1767 00f0 DBB2     		uxtb	r3, r3
 1768 00f2 D31A     		subs	r3, r2, r3
 1769 00f4 DBB2     		uxtb	r3, r3
 1770 00f6 0333     		adds	r3, r3, #3
 1771 00f8 DBB2     		uxtb	r3, r3
 1772 00fa 1A46     		mov	r2, r3
 1773 00fc 1346     		mov	r3, r2
 1774 00fe 9B00     		lsls	r3, r3, #2
 1775 0100 1344     		add	r3, r3, r2
 1776 0102 1F22     		movs	r2, #31
 1777 0104 02FA03F3 		lsl	r3, r2, r3
 1778              		.loc 1 874 27
 1779 0108 DA43     		mvns	r2, r3
 1780              		.loc 1 874 7
 1781 010a 7B68     		ldr	r3, [r7, #4]
 1782 010c 1B68     		ldr	r3, [r3]
 1783              		.loc 1 874 24
 1784 010e 0A40     		ands	r2, r2, r1
 1785 0110 9A63     		str	r2, [r3, #56]
 875:Drivers/STM32F4xx_HAL_Driver/Src/stm32f4xx_hal_adc_ex.c **** 
 876:Drivers/STM32F4xx_HAL_Driver/Src/stm32f4xx_hal_adc_ex.c ****   /* Set the SQx bits for the selected rank */
 877:Drivers/STM32F4xx_HAL_Driver/Src/stm32f4xx_hal_adc_ex.c ****   hadc->Instance->JSQR |= ADC_JSQR(sConfigInjected->InjectedChannel, sConfigInjected->InjectedRank,
 1786              		.loc 1 877 7
 1787 0112 7B68     		ldr	r3, [r7, #4]
 1788 0114 1B68     		ldr	r3, [r3]
 1789              		.loc 1 877 24
 1790 0116 996B     		ldr	r1, [r3, #56]
 1791              		.loc 1 877 27
 1792 0118 3B68     		ldr	r3, [r7]
 1793 011a 1B68     		ldr	r3, [r3]
 1794 011c 9BB2     		uxth	r3, r3
 1795 011e 1846     		mov	r0, r3
 1796 0120 3B68     		ldr	r3, [r7]
 1797 0122 5B68     		ldr	r3, [r3, #4]
 1798 0124 DAB2     		uxtb	r2, r3
 1799 0126 3B68     		ldr	r3, [r7]
 1800 0128 1B69     		ldr	r3, [r3, #16]
 1801 012a DBB2     		uxtb	r3, r3
 1802 012c D31A     		subs	r3, r2, r3
 1803 012e DBB2     		uxtb	r3, r3
 1804 0130 0333     		adds	r3, r3, #3
 1805 0132 DBB2     		uxtb	r3, r3
 1806 0134 1A46     		mov	r2, r3
 1807 0136 1346     		mov	r3, r2
 1808 0138 9B00     		lsls	r3, r3, #2
 1809 013a 1344     		add	r3, r3, r2
ARM GAS  C:\Users\mauro\AppData\Local\Temp\cczNnVbS.s 			page 48


 1810 013c 00FA03F2 		lsl	r2, r0, r3
 1811              		.loc 1 877 7
 1812 0140 7B68     		ldr	r3, [r7, #4]
 1813 0142 1B68     		ldr	r3, [r3]
 1814              		.loc 1 877 24
 1815 0144 0A43     		orrs	r2, r2, r1
 1816 0146 9A63     		str	r2, [r3, #56]
 878:Drivers/STM32F4xx_HAL_Driver/Src/stm32f4xx_hal_adc_ex.c **** 
 879:Drivers/STM32F4xx_HAL_Driver/Src/stm32f4xx_hal_adc_ex.c ****   /* Enable external trigger if trigger selection is different of software  */
 880:Drivers/STM32F4xx_HAL_Driver/Src/stm32f4xx_hal_adc_ex.c ****   /* start.                                                                 */
 881:Drivers/STM32F4xx_HAL_Driver/Src/stm32f4xx_hal_adc_ex.c ****   /* Note: This configuration keeps the hardware feature of parameter       */
 882:Drivers/STM32F4xx_HAL_Driver/Src/stm32f4xx_hal_adc_ex.c ****   /*       ExternalTrigConvEdge "trigger edge none" equivalent to           */
 883:Drivers/STM32F4xx_HAL_Driver/Src/stm32f4xx_hal_adc_ex.c ****   /*       software start.                                                  */
 884:Drivers/STM32F4xx_HAL_Driver/Src/stm32f4xx_hal_adc_ex.c ****   if (sConfigInjected->ExternalTrigInjecConv != ADC_INJECTED_SOFTWARE_START)
 1817              		.loc 1 884 22
 1818 0148 3B68     		ldr	r3, [r7]
 1819 014a 9B69     		ldr	r3, [r3, #24]
 1820              		.loc 1 884 6
 1821 014c 754A     		ldr	r2, .L99
 1822 014e 9342     		cmp	r3, r2
 1823 0150 22D0     		beq	.L85
 885:Drivers/STM32F4xx_HAL_Driver/Src/stm32f4xx_hal_adc_ex.c ****   {
 886:Drivers/STM32F4xx_HAL_Driver/Src/stm32f4xx_hal_adc_ex.c ****     /* Select external trigger to start conversion */
 887:Drivers/STM32F4xx_HAL_Driver/Src/stm32f4xx_hal_adc_ex.c ****     hadc->Instance->CR2 &= ~(ADC_CR2_JEXTSEL);
 1824              		.loc 1 887 9
 1825 0152 7B68     		ldr	r3, [r7, #4]
 1826 0154 1B68     		ldr	r3, [r3]
 1827              		.loc 1 887 25
 1828 0156 9A68     		ldr	r2, [r3, #8]
 1829              		.loc 1 887 9
 1830 0158 7B68     		ldr	r3, [r7, #4]
 1831 015a 1B68     		ldr	r3, [r3]
 1832              		.loc 1 887 25
 1833 015c 22F47022 		bic	r2, r2, #983040
 1834 0160 9A60     		str	r2, [r3, #8]
 888:Drivers/STM32F4xx_HAL_Driver/Src/stm32f4xx_hal_adc_ex.c ****     hadc->Instance->CR2 |=  sConfigInjected->ExternalTrigInjecConv;
 1835              		.loc 1 888 9
 1836 0162 7B68     		ldr	r3, [r7, #4]
 1837 0164 1B68     		ldr	r3, [r3]
 1838              		.loc 1 888 25
 1839 0166 9968     		ldr	r1, [r3, #8]
 1840              		.loc 1 888 44
 1841 0168 3B68     		ldr	r3, [r7]
 1842 016a 9A69     		ldr	r2, [r3, #24]
 1843              		.loc 1 888 9
 1844 016c 7B68     		ldr	r3, [r7, #4]
 1845 016e 1B68     		ldr	r3, [r3]
 1846              		.loc 1 888 25
 1847 0170 0A43     		orrs	r2, r2, r1
 1848 0172 9A60     		str	r2, [r3, #8]
 889:Drivers/STM32F4xx_HAL_Driver/Src/stm32f4xx_hal_adc_ex.c **** 
 890:Drivers/STM32F4xx_HAL_Driver/Src/stm32f4xx_hal_adc_ex.c ****     /* Select external trigger polarity */
 891:Drivers/STM32F4xx_HAL_Driver/Src/stm32f4xx_hal_adc_ex.c ****     hadc->Instance->CR2 &= ~(ADC_CR2_JEXTEN);
 1849              		.loc 1 891 9
 1850 0174 7B68     		ldr	r3, [r7, #4]
 1851 0176 1B68     		ldr	r3, [r3]
 1852              		.loc 1 891 25
ARM GAS  C:\Users\mauro\AppData\Local\Temp\cczNnVbS.s 			page 49


 1853 0178 9A68     		ldr	r2, [r3, #8]
 1854              		.loc 1 891 9
 1855 017a 7B68     		ldr	r3, [r7, #4]
 1856 017c 1B68     		ldr	r3, [r3]
 1857              		.loc 1 891 25
 1858 017e 22F44012 		bic	r2, r2, #3145728
 1859 0182 9A60     		str	r2, [r3, #8]
 892:Drivers/STM32F4xx_HAL_Driver/Src/stm32f4xx_hal_adc_ex.c ****     hadc->Instance->CR2 |= sConfigInjected->ExternalTrigInjecConvEdge;
 1860              		.loc 1 892 9
 1861 0184 7B68     		ldr	r3, [r7, #4]
 1862 0186 1B68     		ldr	r3, [r3]
 1863              		.loc 1 892 25
 1864 0188 9968     		ldr	r1, [r3, #8]
 1865              		.loc 1 892 43
 1866 018a 3B68     		ldr	r3, [r7]
 1867 018c DA69     		ldr	r2, [r3, #28]
 1868              		.loc 1 892 9
 1869 018e 7B68     		ldr	r3, [r7, #4]
 1870 0190 1B68     		ldr	r3, [r3]
 1871              		.loc 1 892 25
 1872 0192 0A43     		orrs	r2, r2, r1
 1873 0194 9A60     		str	r2, [r3, #8]
 1874 0196 0FE0     		b	.L86
 1875              	.L85:
 893:Drivers/STM32F4xx_HAL_Driver/Src/stm32f4xx_hal_adc_ex.c ****   }
 894:Drivers/STM32F4xx_HAL_Driver/Src/stm32f4xx_hal_adc_ex.c ****   else
 895:Drivers/STM32F4xx_HAL_Driver/Src/stm32f4xx_hal_adc_ex.c ****   {
 896:Drivers/STM32F4xx_HAL_Driver/Src/stm32f4xx_hal_adc_ex.c ****     /* Reset the external trigger */
 897:Drivers/STM32F4xx_HAL_Driver/Src/stm32f4xx_hal_adc_ex.c ****     hadc->Instance->CR2 &= ~(ADC_CR2_JEXTSEL);
 1876              		.loc 1 897 9
 1877 0198 7B68     		ldr	r3, [r7, #4]
 1878 019a 1B68     		ldr	r3, [r3]
 1879              		.loc 1 897 25
 1880 019c 9A68     		ldr	r2, [r3, #8]
 1881              		.loc 1 897 9
 1882 019e 7B68     		ldr	r3, [r7, #4]
 1883 01a0 1B68     		ldr	r3, [r3]
 1884              		.loc 1 897 25
 1885 01a2 22F47022 		bic	r2, r2, #983040
 1886 01a6 9A60     		str	r2, [r3, #8]
 898:Drivers/STM32F4xx_HAL_Driver/Src/stm32f4xx_hal_adc_ex.c ****     hadc->Instance->CR2 &= ~(ADC_CR2_JEXTEN);
 1887              		.loc 1 898 9
 1888 01a8 7B68     		ldr	r3, [r7, #4]
 1889 01aa 1B68     		ldr	r3, [r3]
 1890              		.loc 1 898 25
 1891 01ac 9A68     		ldr	r2, [r3, #8]
 1892              		.loc 1 898 9
 1893 01ae 7B68     		ldr	r3, [r7, #4]
 1894 01b0 1B68     		ldr	r3, [r3]
 1895              		.loc 1 898 25
 1896 01b2 22F44012 		bic	r2, r2, #3145728
 1897 01b6 9A60     		str	r2, [r3, #8]
 1898              	.L86:
 899:Drivers/STM32F4xx_HAL_Driver/Src/stm32f4xx_hal_adc_ex.c ****   }
 900:Drivers/STM32F4xx_HAL_Driver/Src/stm32f4xx_hal_adc_ex.c **** 
 901:Drivers/STM32F4xx_HAL_Driver/Src/stm32f4xx_hal_adc_ex.c ****   if (sConfigInjected->AutoInjectedConv != DISABLE)
 1899              		.loc 1 901 22
ARM GAS  C:\Users\mauro\AppData\Local\Temp\cczNnVbS.s 			page 50


 1900 01b8 3B68     		ldr	r3, [r7]
 1901 01ba 5B7D     		ldrb	r3, [r3, #21]	@ zero_extendqisi2
 1902              		.loc 1 901 6
 1903 01bc 002B     		cmp	r3, #0
 1904 01be 08D0     		beq	.L87
 902:Drivers/STM32F4xx_HAL_Driver/Src/stm32f4xx_hal_adc_ex.c ****   {
 903:Drivers/STM32F4xx_HAL_Driver/Src/stm32f4xx_hal_adc_ex.c ****     /* Enable the selected ADC automatic injected group conversion */
 904:Drivers/STM32F4xx_HAL_Driver/Src/stm32f4xx_hal_adc_ex.c ****     hadc->Instance->CR1 |= ADC_CR1_JAUTO;
 1905              		.loc 1 904 9
 1906 01c0 7B68     		ldr	r3, [r7, #4]
 1907 01c2 1B68     		ldr	r3, [r3]
 1908              		.loc 1 904 25
 1909 01c4 5A68     		ldr	r2, [r3, #4]
 1910              		.loc 1 904 9
 1911 01c6 7B68     		ldr	r3, [r7, #4]
 1912 01c8 1B68     		ldr	r3, [r3]
 1913              		.loc 1 904 25
 1914 01ca 42F48062 		orr	r2, r2, #1024
 1915 01ce 5A60     		str	r2, [r3, #4]
 1916 01d0 07E0     		b	.L88
 1917              	.L87:
 905:Drivers/STM32F4xx_HAL_Driver/Src/stm32f4xx_hal_adc_ex.c ****   }
 906:Drivers/STM32F4xx_HAL_Driver/Src/stm32f4xx_hal_adc_ex.c ****   else
 907:Drivers/STM32F4xx_HAL_Driver/Src/stm32f4xx_hal_adc_ex.c ****   {
 908:Drivers/STM32F4xx_HAL_Driver/Src/stm32f4xx_hal_adc_ex.c ****     /* Disable the selected ADC automatic injected group conversion */
 909:Drivers/STM32F4xx_HAL_Driver/Src/stm32f4xx_hal_adc_ex.c ****     hadc->Instance->CR1 &= ~(ADC_CR1_JAUTO);
 1918              		.loc 1 909 9
 1919 01d2 7B68     		ldr	r3, [r7, #4]
 1920 01d4 1B68     		ldr	r3, [r3]
 1921              		.loc 1 909 25
 1922 01d6 5A68     		ldr	r2, [r3, #4]
 1923              		.loc 1 909 9
 1924 01d8 7B68     		ldr	r3, [r7, #4]
 1925 01da 1B68     		ldr	r3, [r3]
 1926              		.loc 1 909 25
 1927 01dc 22F48062 		bic	r2, r2, #1024
 1928 01e0 5A60     		str	r2, [r3, #4]
 1929              	.L88:
 910:Drivers/STM32F4xx_HAL_Driver/Src/stm32f4xx_hal_adc_ex.c ****   }
 911:Drivers/STM32F4xx_HAL_Driver/Src/stm32f4xx_hal_adc_ex.c **** 
 912:Drivers/STM32F4xx_HAL_Driver/Src/stm32f4xx_hal_adc_ex.c ****   if (sConfigInjected->InjectedDiscontinuousConvMode != DISABLE)
 1930              		.loc 1 912 22
 1931 01e2 3B68     		ldr	r3, [r7]
 1932 01e4 1B7D     		ldrb	r3, [r3, #20]	@ zero_extendqisi2
 1933              		.loc 1 912 6
 1934 01e6 002B     		cmp	r3, #0
 1935 01e8 08D0     		beq	.L89
 913:Drivers/STM32F4xx_HAL_Driver/Src/stm32f4xx_hal_adc_ex.c ****   {
 914:Drivers/STM32F4xx_HAL_Driver/Src/stm32f4xx_hal_adc_ex.c ****     /* Enable the selected ADC injected discontinuous mode */
 915:Drivers/STM32F4xx_HAL_Driver/Src/stm32f4xx_hal_adc_ex.c ****     hadc->Instance->CR1 |= ADC_CR1_JDISCEN;
 1936              		.loc 1 915 9
 1937 01ea 7B68     		ldr	r3, [r7, #4]
 1938 01ec 1B68     		ldr	r3, [r3]
 1939              		.loc 1 915 25
 1940 01ee 5A68     		ldr	r2, [r3, #4]
 1941              		.loc 1 915 9
 1942 01f0 7B68     		ldr	r3, [r7, #4]
ARM GAS  C:\Users\mauro\AppData\Local\Temp\cczNnVbS.s 			page 51


 1943 01f2 1B68     		ldr	r3, [r3]
 1944              		.loc 1 915 25
 1945 01f4 42F48052 		orr	r2, r2, #4096
 1946 01f8 5A60     		str	r2, [r3, #4]
 1947 01fa 07E0     		b	.L90
 1948              	.L89:
 916:Drivers/STM32F4xx_HAL_Driver/Src/stm32f4xx_hal_adc_ex.c ****   }
 917:Drivers/STM32F4xx_HAL_Driver/Src/stm32f4xx_hal_adc_ex.c ****   else
 918:Drivers/STM32F4xx_HAL_Driver/Src/stm32f4xx_hal_adc_ex.c ****   {
 919:Drivers/STM32F4xx_HAL_Driver/Src/stm32f4xx_hal_adc_ex.c ****     /* Disable the selected ADC injected discontinuous mode */
 920:Drivers/STM32F4xx_HAL_Driver/Src/stm32f4xx_hal_adc_ex.c ****     hadc->Instance->CR1 &= ~(ADC_CR1_JDISCEN);
 1949              		.loc 1 920 9
 1950 01fc 7B68     		ldr	r3, [r7, #4]
 1951 01fe 1B68     		ldr	r3, [r3]
 1952              		.loc 1 920 25
 1953 0200 5A68     		ldr	r2, [r3, #4]
 1954              		.loc 1 920 9
 1955 0202 7B68     		ldr	r3, [r7, #4]
 1956 0204 1B68     		ldr	r3, [r3]
 1957              		.loc 1 920 25
 1958 0206 22F48052 		bic	r2, r2, #4096
 1959 020a 5A60     		str	r2, [r3, #4]
 1960              	.L90:
 921:Drivers/STM32F4xx_HAL_Driver/Src/stm32f4xx_hal_adc_ex.c ****   }
 922:Drivers/STM32F4xx_HAL_Driver/Src/stm32f4xx_hal_adc_ex.c **** 
 923:Drivers/STM32F4xx_HAL_Driver/Src/stm32f4xx_hal_adc_ex.c ****   switch (sConfigInjected->InjectedRank)
 1961              		.loc 1 923 26
 1962 020c 3B68     		ldr	r3, [r7]
 1963 020e 5B68     		ldr	r3, [r3, #4]
 1964              		.loc 1 923 3
 1965 0210 032B     		cmp	r3, #3
 1966 0212 2ED0     		beq	.L91
 1967 0214 032B     		cmp	r3, #3
 1968 0216 40D8     		bhi	.L92
 1969 0218 012B     		cmp	r3, #1
 1970 021a 02D0     		beq	.L93
 1971 021c 022B     		cmp	r3, #2
 1972 021e 14D0     		beq	.L94
 1973 0220 3BE0     		b	.L92
 1974              	.L93:
 924:Drivers/STM32F4xx_HAL_Driver/Src/stm32f4xx_hal_adc_ex.c ****   {
 925:Drivers/STM32F4xx_HAL_Driver/Src/stm32f4xx_hal_adc_ex.c ****     case 1U:
 926:Drivers/STM32F4xx_HAL_Driver/Src/stm32f4xx_hal_adc_ex.c ****       /* Set injected channel 1 offset */
 927:Drivers/STM32F4xx_HAL_Driver/Src/stm32f4xx_hal_adc_ex.c ****       hadc->Instance->JOFR1 &= ~(ADC_JOFR1_JOFFSET1);
 1975              		.loc 1 927 11
 1976 0222 7B68     		ldr	r3, [r7, #4]
 1977 0224 1B68     		ldr	r3, [r3]
 1978              		.loc 1 927 29
 1979 0226 5B69     		ldr	r3, [r3, #20]
 1980              		.loc 1 927 11
 1981 0228 7A68     		ldr	r2, [r7, #4]
 1982 022a 1268     		ldr	r2, [r2]
 1983              		.loc 1 927 29
 1984 022c 23F47F63 		bic	r3, r3, #4080
 1985 0230 23F00F03 		bic	r3, r3, #15
 1986 0234 5361     		str	r3, [r2, #20]
 928:Drivers/STM32F4xx_HAL_Driver/Src/stm32f4xx_hal_adc_ex.c ****       hadc->Instance->JOFR1 |= sConfigInjected->InjectedOffset;
ARM GAS  C:\Users\mauro\AppData\Local\Temp\cczNnVbS.s 			page 52


 1987              		.loc 1 928 11
 1988 0236 7B68     		ldr	r3, [r7, #4]
 1989 0238 1B68     		ldr	r3, [r3]
 1990              		.loc 1 928 29
 1991 023a 5969     		ldr	r1, [r3, #20]
 1992              		.loc 1 928 47
 1993 023c 3B68     		ldr	r3, [r7]
 1994 023e DA68     		ldr	r2, [r3, #12]
 1995              		.loc 1 928 11
 1996 0240 7B68     		ldr	r3, [r7, #4]
 1997 0242 1B68     		ldr	r3, [r3]
 1998              		.loc 1 928 29
 1999 0244 0A43     		orrs	r2, r2, r1
 2000 0246 5A61     		str	r2, [r3, #20]
 929:Drivers/STM32F4xx_HAL_Driver/Src/stm32f4xx_hal_adc_ex.c ****       break;
 2001              		.loc 1 929 7
 2002 0248 3BE0     		b	.L95
 2003              	.L94:
 930:Drivers/STM32F4xx_HAL_Driver/Src/stm32f4xx_hal_adc_ex.c ****     case 2U:
 931:Drivers/STM32F4xx_HAL_Driver/Src/stm32f4xx_hal_adc_ex.c ****       /* Set injected channel 2 offset */
 932:Drivers/STM32F4xx_HAL_Driver/Src/stm32f4xx_hal_adc_ex.c ****       hadc->Instance->JOFR2 &= ~(ADC_JOFR2_JOFFSET2);
 2004              		.loc 1 932 11
 2005 024a 7B68     		ldr	r3, [r7, #4]
 2006 024c 1B68     		ldr	r3, [r3]
 2007              		.loc 1 932 29
 2008 024e 9B69     		ldr	r3, [r3, #24]
 2009              		.loc 1 932 11
 2010 0250 7A68     		ldr	r2, [r7, #4]
 2011 0252 1268     		ldr	r2, [r2]
 2012              		.loc 1 932 29
 2013 0254 23F47F63 		bic	r3, r3, #4080
 2014 0258 23F00F03 		bic	r3, r3, #15
 2015 025c 9361     		str	r3, [r2, #24]
 933:Drivers/STM32F4xx_HAL_Driver/Src/stm32f4xx_hal_adc_ex.c ****       hadc->Instance->JOFR2 |= sConfigInjected->InjectedOffset;
 2016              		.loc 1 933 11
 2017 025e 7B68     		ldr	r3, [r7, #4]
 2018 0260 1B68     		ldr	r3, [r3]
 2019              		.loc 1 933 29
 2020 0262 9969     		ldr	r1, [r3, #24]
 2021              		.loc 1 933 47
 2022 0264 3B68     		ldr	r3, [r7]
 2023 0266 DA68     		ldr	r2, [r3, #12]
 2024              		.loc 1 933 11
 2025 0268 7B68     		ldr	r3, [r7, #4]
 2026 026a 1B68     		ldr	r3, [r3]
 2027              		.loc 1 933 29
 2028 026c 0A43     		orrs	r2, r2, r1
 2029 026e 9A61     		str	r2, [r3, #24]
 934:Drivers/STM32F4xx_HAL_Driver/Src/stm32f4xx_hal_adc_ex.c ****       break;
 2030              		.loc 1 934 7
 2031 0270 27E0     		b	.L95
 2032              	.L91:
 935:Drivers/STM32F4xx_HAL_Driver/Src/stm32f4xx_hal_adc_ex.c ****     case 3U:
 936:Drivers/STM32F4xx_HAL_Driver/Src/stm32f4xx_hal_adc_ex.c ****       /* Set injected channel 3 offset */
 937:Drivers/STM32F4xx_HAL_Driver/Src/stm32f4xx_hal_adc_ex.c ****       hadc->Instance->JOFR3 &= ~(ADC_JOFR3_JOFFSET3);
 2033              		.loc 1 937 11
 2034 0272 7B68     		ldr	r3, [r7, #4]
ARM GAS  C:\Users\mauro\AppData\Local\Temp\cczNnVbS.s 			page 53


 2035 0274 1B68     		ldr	r3, [r3]
 2036              		.loc 1 937 29
 2037 0276 DB69     		ldr	r3, [r3, #28]
 2038              		.loc 1 937 11
 2039 0278 7A68     		ldr	r2, [r7, #4]
 2040 027a 1268     		ldr	r2, [r2]
 2041              		.loc 1 937 29
 2042 027c 23F47F63 		bic	r3, r3, #4080
 2043 0280 23F00F03 		bic	r3, r3, #15
 2044 0284 D361     		str	r3, [r2, #28]
 938:Drivers/STM32F4xx_HAL_Driver/Src/stm32f4xx_hal_adc_ex.c ****       hadc->Instance->JOFR3 |= sConfigInjected->InjectedOffset;
 2045              		.loc 1 938 11
 2046 0286 7B68     		ldr	r3, [r7, #4]
 2047 0288 1B68     		ldr	r3, [r3]
 2048              		.loc 1 938 29
 2049 028a D969     		ldr	r1, [r3, #28]
 2050              		.loc 1 938 47
 2051 028c 3B68     		ldr	r3, [r7]
 2052 028e DA68     		ldr	r2, [r3, #12]
 2053              		.loc 1 938 11
 2054 0290 7B68     		ldr	r3, [r7, #4]
 2055 0292 1B68     		ldr	r3, [r3]
 2056              		.loc 1 938 29
 2057 0294 0A43     		orrs	r2, r2, r1
 2058 0296 DA61     		str	r2, [r3, #28]
 939:Drivers/STM32F4xx_HAL_Driver/Src/stm32f4xx_hal_adc_ex.c ****       break;
 2059              		.loc 1 939 7
 2060 0298 13E0     		b	.L95
 2061              	.L92:
 940:Drivers/STM32F4xx_HAL_Driver/Src/stm32f4xx_hal_adc_ex.c ****     default:
 941:Drivers/STM32F4xx_HAL_Driver/Src/stm32f4xx_hal_adc_ex.c ****       /* Set injected channel 4 offset */
 942:Drivers/STM32F4xx_HAL_Driver/Src/stm32f4xx_hal_adc_ex.c ****       hadc->Instance->JOFR4 &= ~(ADC_JOFR4_JOFFSET4);
 2062              		.loc 1 942 11
 2063 029a 7B68     		ldr	r3, [r7, #4]
 2064 029c 1B68     		ldr	r3, [r3]
 2065              		.loc 1 942 29
 2066 029e 1B6A     		ldr	r3, [r3, #32]
 2067              		.loc 1 942 11
 2068 02a0 7A68     		ldr	r2, [r7, #4]
 2069 02a2 1268     		ldr	r2, [r2]
 2070              		.loc 1 942 29
 2071 02a4 23F47F63 		bic	r3, r3, #4080
 2072 02a8 23F00F03 		bic	r3, r3, #15
 2073 02ac 1362     		str	r3, [r2, #32]
 943:Drivers/STM32F4xx_HAL_Driver/Src/stm32f4xx_hal_adc_ex.c ****       hadc->Instance->JOFR4 |= sConfigInjected->InjectedOffset;
 2074              		.loc 1 943 11
 2075 02ae 7B68     		ldr	r3, [r7, #4]
 2076 02b0 1B68     		ldr	r3, [r3]
 2077              		.loc 1 943 29
 2078 02b2 196A     		ldr	r1, [r3, #32]
 2079              		.loc 1 943 47
 2080 02b4 3B68     		ldr	r3, [r7]
 2081 02b6 DA68     		ldr	r2, [r3, #12]
 2082              		.loc 1 943 11
 2083 02b8 7B68     		ldr	r3, [r7, #4]
 2084 02ba 1B68     		ldr	r3, [r3]
 2085              		.loc 1 943 29
ARM GAS  C:\Users\mauro\AppData\Local\Temp\cczNnVbS.s 			page 54


 2086 02bc 0A43     		orrs	r2, r2, r1
 2087 02be 1A62     		str	r2, [r3, #32]
 944:Drivers/STM32F4xx_HAL_Driver/Src/stm32f4xx_hal_adc_ex.c ****       break;
 2088              		.loc 1 944 7
 2089 02c0 00BF     		nop
 2090              	.L95:
 945:Drivers/STM32F4xx_HAL_Driver/Src/stm32f4xx_hal_adc_ex.c ****   }
 946:Drivers/STM32F4xx_HAL_Driver/Src/stm32f4xx_hal_adc_ex.c **** 
 947:Drivers/STM32F4xx_HAL_Driver/Src/stm32f4xx_hal_adc_ex.c ****   /* Pointer to the common control register to which is belonging hadc    */
 948:Drivers/STM32F4xx_HAL_Driver/Src/stm32f4xx_hal_adc_ex.c ****   /* (Depending on STM32F4 product, there may be up to 3 ADC and 1 common */
 949:Drivers/STM32F4xx_HAL_Driver/Src/stm32f4xx_hal_adc_ex.c ****   /* control register)                                                    */
 950:Drivers/STM32F4xx_HAL_Driver/Src/stm32f4xx_hal_adc_ex.c ****   tmpADC_Common = ADC_COMMON_REGISTER(hadc);
 2091              		.loc 1 950 17
 2092 02c2 194B     		ldr	r3, .L99+4
 2093 02c4 FB60     		str	r3, [r7, #12]
 951:Drivers/STM32F4xx_HAL_Driver/Src/stm32f4xx_hal_adc_ex.c **** 
 952:Drivers/STM32F4xx_HAL_Driver/Src/stm32f4xx_hal_adc_ex.c ****   /* if ADC1 Channel_18 is selected enable VBAT Channel */
 953:Drivers/STM32F4xx_HAL_Driver/Src/stm32f4xx_hal_adc_ex.c ****   if ((hadc->Instance == ADC1) && (sConfigInjected->InjectedChannel == ADC_CHANNEL_VBAT))
 2094              		.loc 1 953 12
 2095 02c6 7B68     		ldr	r3, [r7, #4]
 2096 02c8 1B68     		ldr	r3, [r3]
 2097              		.loc 1 953 6
 2098 02ca 184A     		ldr	r2, .L99+8
 2099 02cc 9342     		cmp	r3, r2
 2100 02ce 09D1     		bne	.L96
 2101              		.loc 1 953 51 discriminator 1
 2102 02d0 3B68     		ldr	r3, [r7]
 2103 02d2 1B68     		ldr	r3, [r3]
 2104              		.loc 1 953 32 discriminator 1
 2105 02d4 122B     		cmp	r3, #18
 2106 02d6 05D1     		bne	.L96
 954:Drivers/STM32F4xx_HAL_Driver/Src/stm32f4xx_hal_adc_ex.c ****   {
 955:Drivers/STM32F4xx_HAL_Driver/Src/stm32f4xx_hal_adc_ex.c ****     /* Enable the VBAT channel*/
 956:Drivers/STM32F4xx_HAL_Driver/Src/stm32f4xx_hal_adc_ex.c ****     tmpADC_Common->CCR |= ADC_CCR_VBATE;
 2107              		.loc 1 956 24
 2108 02d8 FB68     		ldr	r3, [r7, #12]
 2109 02da 5B68     		ldr	r3, [r3, #4]
 2110 02dc 43F48002 		orr	r2, r3, #4194304
 2111 02e0 FB68     		ldr	r3, [r7, #12]
 2112 02e2 5A60     		str	r2, [r3, #4]
 2113              	.L96:
 957:Drivers/STM32F4xx_HAL_Driver/Src/stm32f4xx_hal_adc_ex.c ****   }
 958:Drivers/STM32F4xx_HAL_Driver/Src/stm32f4xx_hal_adc_ex.c **** 
 959:Drivers/STM32F4xx_HAL_Driver/Src/stm32f4xx_hal_adc_ex.c ****   /* if ADC1 Channel_16 or Channel_17 is selected enable TSVREFE Channel(Temperature sensor and VRE
 960:Drivers/STM32F4xx_HAL_Driver/Src/stm32f4xx_hal_adc_ex.c ****   if ((hadc->Instance == ADC1) && ((sConfigInjected->InjectedChannel == ADC_CHANNEL_TEMPSENSOR) || 
 2114              		.loc 1 960 12
 2115 02e4 7B68     		ldr	r3, [r7, #4]
 2116 02e6 1B68     		ldr	r3, [r3]
 2117              		.loc 1 960 6
 2118 02e8 104A     		ldr	r2, .L99+8
 2119 02ea 9342     		cmp	r3, r2
 2120 02ec 0ED1     		bne	.L97
 2121              		.loc 1 960 52 discriminator 1
 2122 02ee 3B68     		ldr	r3, [r7]
 2123 02f0 1B68     		ldr	r3, [r3]
 2124              		.loc 1 960 32 discriminator 1
 2125 02f2 0F4A     		ldr	r2, .L99+12
ARM GAS  C:\Users\mauro\AppData\Local\Temp\cczNnVbS.s 			page 55


 2126 02f4 9342     		cmp	r3, r2
 2127 02f6 03D0     		beq	.L98
 2128              		.loc 1 960 116 discriminator 2
 2129 02f8 3B68     		ldr	r3, [r7]
 2130 02fa 1B68     		ldr	r3, [r3]
 2131              		.loc 1 960 97 discriminator 2
 2132 02fc 112B     		cmp	r3, #17
 2133 02fe 05D1     		bne	.L97
 2134              	.L98:
 961:Drivers/STM32F4xx_HAL_Driver/Src/stm32f4xx_hal_adc_ex.c ****   {
 962:Drivers/STM32F4xx_HAL_Driver/Src/stm32f4xx_hal_adc_ex.c ****     /* Enable the TSVREFE channel*/
 963:Drivers/STM32F4xx_HAL_Driver/Src/stm32f4xx_hal_adc_ex.c ****     tmpADC_Common->CCR |= ADC_CCR_TSVREFE;
 2135              		.loc 1 963 24
 2136 0300 FB68     		ldr	r3, [r7, #12]
 2137 0302 5B68     		ldr	r3, [r3, #4]
 2138 0304 43F40002 		orr	r2, r3, #8388608
 2139 0308 FB68     		ldr	r3, [r7, #12]
 2140 030a 5A60     		str	r2, [r3, #4]
 2141              	.L97:
 964:Drivers/STM32F4xx_HAL_Driver/Src/stm32f4xx_hal_adc_ex.c ****   }
 965:Drivers/STM32F4xx_HAL_Driver/Src/stm32f4xx_hal_adc_ex.c **** 
 966:Drivers/STM32F4xx_HAL_Driver/Src/stm32f4xx_hal_adc_ex.c ****   /* Process unlocked */
 967:Drivers/STM32F4xx_HAL_Driver/Src/stm32f4xx_hal_adc_ex.c ****   __HAL_UNLOCK(hadc);
 2142              		.loc 1 967 3
 2143 030c 7B68     		ldr	r3, [r7, #4]
 2144 030e 0022     		movs	r2, #0
 2145 0310 83F83C20 		strb	r2, [r3, #60]
 968:Drivers/STM32F4xx_HAL_Driver/Src/stm32f4xx_hal_adc_ex.c **** 
 969:Drivers/STM32F4xx_HAL_Driver/Src/stm32f4xx_hal_adc_ex.c ****   /* Return function status */
 970:Drivers/STM32F4xx_HAL_Driver/Src/stm32f4xx_hal_adc_ex.c ****   return HAL_OK;
 2146              		.loc 1 970 10
 2147 0314 0023     		movs	r3, #0
 2148              	.L82:
 971:Drivers/STM32F4xx_HAL_Driver/Src/stm32f4xx_hal_adc_ex.c **** }
 2149              		.loc 1 971 1
 2150 0316 1846     		mov	r0, r3
 2151 0318 1437     		adds	r7, r7, #20
 2152              	.LCFI60:
 2153              		.cfi_def_cfa_offset 4
 2154 031a BD46     		mov	sp, r7
 2155              	.LCFI61:
 2156              		.cfi_def_cfa_register 13
 2157              		@ sp needed
 2158 031c 5DF8047B 		ldr	r7, [sp], #4
 2159              	.LCFI62:
 2160              		.cfi_restore 7
 2161              		.cfi_def_cfa_offset 0
 2162 0320 7047     		bx	lr
 2163              	.L100:
 2164 0322 00BF     		.align	2
 2165              	.L99:
 2166 0324 01000F00 		.word	983041
 2167 0328 00230140 		.word	1073816320
 2168 032c 00200140 		.word	1073815552
 2169 0330 12000010 		.word	268435474
 2170              		.cfi_endproc
 2171              	.LFE230:
ARM GAS  C:\Users\mauro\AppData\Local\Temp\cczNnVbS.s 			page 56


 2173              		.section	.text.HAL_ADCEx_MultiModeConfigChannel,"ax",%progbits
 2174              		.align	1
 2175              		.global	HAL_ADCEx_MultiModeConfigChannel
 2176              		.syntax unified
 2177              		.thumb
 2178              		.thumb_func
 2180              	HAL_ADCEx_MultiModeConfigChannel:
 2181              	.LFB231:
 972:Drivers/STM32F4xx_HAL_Driver/Src/stm32f4xx_hal_adc_ex.c **** 
 973:Drivers/STM32F4xx_HAL_Driver/Src/stm32f4xx_hal_adc_ex.c **** /**
 974:Drivers/STM32F4xx_HAL_Driver/Src/stm32f4xx_hal_adc_ex.c ****   * @brief  Configures the ADC multi-mode
 975:Drivers/STM32F4xx_HAL_Driver/Src/stm32f4xx_hal_adc_ex.c ****   * @param  hadc       pointer to a ADC_HandleTypeDef structure that contains
 976:Drivers/STM32F4xx_HAL_Driver/Src/stm32f4xx_hal_adc_ex.c ****   *                     the configuration information for the specified ADC.
 977:Drivers/STM32F4xx_HAL_Driver/Src/stm32f4xx_hal_adc_ex.c ****   * @param  multimode  pointer to an ADC_MultiModeTypeDef structure that contains
 978:Drivers/STM32F4xx_HAL_Driver/Src/stm32f4xx_hal_adc_ex.c ****   *                     the configuration information for  multimode.
 979:Drivers/STM32F4xx_HAL_Driver/Src/stm32f4xx_hal_adc_ex.c ****   * @retval HAL status
 980:Drivers/STM32F4xx_HAL_Driver/Src/stm32f4xx_hal_adc_ex.c ****   */
 981:Drivers/STM32F4xx_HAL_Driver/Src/stm32f4xx_hal_adc_ex.c **** HAL_StatusTypeDef HAL_ADCEx_MultiModeConfigChannel(ADC_HandleTypeDef *hadc, ADC_MultiModeTypeDef *m
 982:Drivers/STM32F4xx_HAL_Driver/Src/stm32f4xx_hal_adc_ex.c **** {
 2182              		.loc 1 982 1
 2183              		.cfi_startproc
 2184              		@ args = 0, pretend = 0, frame = 16
 2185              		@ frame_needed = 1, uses_anonymous_args = 0
 2186              		@ link register save eliminated.
 2187 0000 80B4     		push	{r7}
 2188              	.LCFI63:
 2189              		.cfi_def_cfa_offset 4
 2190              		.cfi_offset 7, -4
 2191 0002 85B0     		sub	sp, sp, #20
 2192              	.LCFI64:
 2193              		.cfi_def_cfa_offset 24
 2194 0004 00AF     		add	r7, sp, #0
 2195              	.LCFI65:
 2196              		.cfi_def_cfa_register 7
 2197 0006 7860     		str	r0, [r7, #4]
 2198 0008 3960     		str	r1, [r7]
 983:Drivers/STM32F4xx_HAL_Driver/Src/stm32f4xx_hal_adc_ex.c **** 
 984:Drivers/STM32F4xx_HAL_Driver/Src/stm32f4xx_hal_adc_ex.c ****   ADC_Common_TypeDef *tmpADC_Common;
 985:Drivers/STM32F4xx_HAL_Driver/Src/stm32f4xx_hal_adc_ex.c **** 
 986:Drivers/STM32F4xx_HAL_Driver/Src/stm32f4xx_hal_adc_ex.c ****   /* Check the parameters */
 987:Drivers/STM32F4xx_HAL_Driver/Src/stm32f4xx_hal_adc_ex.c ****   assert_param(IS_ADC_MODE(multimode->Mode));
 988:Drivers/STM32F4xx_HAL_Driver/Src/stm32f4xx_hal_adc_ex.c ****   assert_param(IS_ADC_DMA_ACCESS_MODE(multimode->DMAAccessMode));
 989:Drivers/STM32F4xx_HAL_Driver/Src/stm32f4xx_hal_adc_ex.c ****   assert_param(IS_ADC_SAMPLING_DELAY(multimode->TwoSamplingDelay));
 990:Drivers/STM32F4xx_HAL_Driver/Src/stm32f4xx_hal_adc_ex.c **** 
 991:Drivers/STM32F4xx_HAL_Driver/Src/stm32f4xx_hal_adc_ex.c ****   /* Process locked */
 992:Drivers/STM32F4xx_HAL_Driver/Src/stm32f4xx_hal_adc_ex.c ****   __HAL_LOCK(hadc);
 2199              		.loc 1 992 3
 2200 000a 7B68     		ldr	r3, [r7, #4]
 2201 000c 93F83C30 		ldrb	r3, [r3, #60]	@ zero_extendqisi2
 2202 0010 012B     		cmp	r3, #1
 2203 0012 01D1     		bne	.L102
 2204              		.loc 1 992 3 is_stmt 0 discriminator 1
 2205 0014 0223     		movs	r3, #2
 2206 0016 31E0     		b	.L103
 2207              	.L102:
 2208              		.loc 1 992 3 discriminator 2
 2209 0018 7B68     		ldr	r3, [r7, #4]
ARM GAS  C:\Users\mauro\AppData\Local\Temp\cczNnVbS.s 			page 57


 2210 001a 0122     		movs	r2, #1
 2211 001c 83F83C20 		strb	r2, [r3, #60]
 993:Drivers/STM32F4xx_HAL_Driver/Src/stm32f4xx_hal_adc_ex.c **** 
 994:Drivers/STM32F4xx_HAL_Driver/Src/stm32f4xx_hal_adc_ex.c ****   /* Pointer to the common control register to which is belonging hadc    */
 995:Drivers/STM32F4xx_HAL_Driver/Src/stm32f4xx_hal_adc_ex.c ****   /* (Depending on STM32F4 product, there may be up to 3 ADC and 1 common */
 996:Drivers/STM32F4xx_HAL_Driver/Src/stm32f4xx_hal_adc_ex.c ****   /* control register)                                                    */
 997:Drivers/STM32F4xx_HAL_Driver/Src/stm32f4xx_hal_adc_ex.c ****   tmpADC_Common = ADC_COMMON_REGISTER(hadc);
 2212              		.loc 1 997 17 is_stmt 1 discriminator 2
 2213 0020 194B     		ldr	r3, .L104
 2214 0022 FB60     		str	r3, [r7, #12]
 998:Drivers/STM32F4xx_HAL_Driver/Src/stm32f4xx_hal_adc_ex.c **** 
 999:Drivers/STM32F4xx_HAL_Driver/Src/stm32f4xx_hal_adc_ex.c ****   /* Set ADC mode */
1000:Drivers/STM32F4xx_HAL_Driver/Src/stm32f4xx_hal_adc_ex.c ****   tmpADC_Common->CCR &= ~(ADC_CCR_MULTI);
 2215              		.loc 1 1000 22 discriminator 2
 2216 0024 FB68     		ldr	r3, [r7, #12]
 2217 0026 5B68     		ldr	r3, [r3, #4]
 2218 0028 23F01F02 		bic	r2, r3, #31
 2219 002c FB68     		ldr	r3, [r7, #12]
 2220 002e 5A60     		str	r2, [r3, #4]
1001:Drivers/STM32F4xx_HAL_Driver/Src/stm32f4xx_hal_adc_ex.c ****   tmpADC_Common->CCR |= multimode->Mode;
 2221              		.loc 1 1001 22 discriminator 2
 2222 0030 FB68     		ldr	r3, [r7, #12]
 2223 0032 5A68     		ldr	r2, [r3, #4]
 2224              		.loc 1 1001 34 discriminator 2
 2225 0034 3B68     		ldr	r3, [r7]
 2226 0036 1B68     		ldr	r3, [r3]
 2227              		.loc 1 1001 22 discriminator 2
 2228 0038 1A43     		orrs	r2, r2, r3
 2229 003a FB68     		ldr	r3, [r7, #12]
 2230 003c 5A60     		str	r2, [r3, #4]
1002:Drivers/STM32F4xx_HAL_Driver/Src/stm32f4xx_hal_adc_ex.c **** 
1003:Drivers/STM32F4xx_HAL_Driver/Src/stm32f4xx_hal_adc_ex.c ****   /* Set the ADC DMA access mode */
1004:Drivers/STM32F4xx_HAL_Driver/Src/stm32f4xx_hal_adc_ex.c ****   tmpADC_Common->CCR &= ~(ADC_CCR_DMA);
 2231              		.loc 1 1004 22 discriminator 2
 2232 003e FB68     		ldr	r3, [r7, #12]
 2233 0040 5B68     		ldr	r3, [r3, #4]
 2234 0042 23F44042 		bic	r2, r3, #49152
 2235 0046 FB68     		ldr	r3, [r7, #12]
 2236 0048 5A60     		str	r2, [r3, #4]
1005:Drivers/STM32F4xx_HAL_Driver/Src/stm32f4xx_hal_adc_ex.c ****   tmpADC_Common->CCR |= multimode->DMAAccessMode;
 2237              		.loc 1 1005 22 discriminator 2
 2238 004a FB68     		ldr	r3, [r7, #12]
 2239 004c 5A68     		ldr	r2, [r3, #4]
 2240              		.loc 1 1005 34 discriminator 2
 2241 004e 3B68     		ldr	r3, [r7]
 2242 0050 5B68     		ldr	r3, [r3, #4]
 2243              		.loc 1 1005 22 discriminator 2
 2244 0052 1A43     		orrs	r2, r2, r3
 2245 0054 FB68     		ldr	r3, [r7, #12]
 2246 0056 5A60     		str	r2, [r3, #4]
1006:Drivers/STM32F4xx_HAL_Driver/Src/stm32f4xx_hal_adc_ex.c **** 
1007:Drivers/STM32F4xx_HAL_Driver/Src/stm32f4xx_hal_adc_ex.c ****   /* Set delay between two sampling phases */
1008:Drivers/STM32F4xx_HAL_Driver/Src/stm32f4xx_hal_adc_ex.c ****   tmpADC_Common->CCR &= ~(ADC_CCR_DELAY);
 2247              		.loc 1 1008 22 discriminator 2
 2248 0058 FB68     		ldr	r3, [r7, #12]
 2249 005a 5B68     		ldr	r3, [r3, #4]
 2250 005c 23F47062 		bic	r2, r3, #3840
ARM GAS  C:\Users\mauro\AppData\Local\Temp\cczNnVbS.s 			page 58


 2251 0060 FB68     		ldr	r3, [r7, #12]
 2252 0062 5A60     		str	r2, [r3, #4]
1009:Drivers/STM32F4xx_HAL_Driver/Src/stm32f4xx_hal_adc_ex.c ****   tmpADC_Common->CCR |= multimode->TwoSamplingDelay;
 2253              		.loc 1 1009 22 discriminator 2
 2254 0064 FB68     		ldr	r3, [r7, #12]
 2255 0066 5A68     		ldr	r2, [r3, #4]
 2256              		.loc 1 1009 34 discriminator 2
 2257 0068 3B68     		ldr	r3, [r7]
 2258 006a 9B68     		ldr	r3, [r3, #8]
 2259              		.loc 1 1009 22 discriminator 2
 2260 006c 1A43     		orrs	r2, r2, r3
 2261 006e FB68     		ldr	r3, [r7, #12]
 2262 0070 5A60     		str	r2, [r3, #4]
1010:Drivers/STM32F4xx_HAL_Driver/Src/stm32f4xx_hal_adc_ex.c **** 
1011:Drivers/STM32F4xx_HAL_Driver/Src/stm32f4xx_hal_adc_ex.c ****   /* Process unlocked */
1012:Drivers/STM32F4xx_HAL_Driver/Src/stm32f4xx_hal_adc_ex.c ****   __HAL_UNLOCK(hadc);
 2263              		.loc 1 1012 3 discriminator 2
 2264 0072 7B68     		ldr	r3, [r7, #4]
 2265 0074 0022     		movs	r2, #0
 2266 0076 83F83C20 		strb	r2, [r3, #60]
1013:Drivers/STM32F4xx_HAL_Driver/Src/stm32f4xx_hal_adc_ex.c **** 
1014:Drivers/STM32F4xx_HAL_Driver/Src/stm32f4xx_hal_adc_ex.c ****   /* Return function status */
1015:Drivers/STM32F4xx_HAL_Driver/Src/stm32f4xx_hal_adc_ex.c ****   return HAL_OK;
 2267              		.loc 1 1015 10 discriminator 2
 2268 007a 0023     		movs	r3, #0
 2269              	.L103:
1016:Drivers/STM32F4xx_HAL_Driver/Src/stm32f4xx_hal_adc_ex.c **** }
 2270              		.loc 1 1016 1
 2271 007c 1846     		mov	r0, r3
 2272 007e 1437     		adds	r7, r7, #20
 2273              	.LCFI66:
 2274              		.cfi_def_cfa_offset 4
 2275 0080 BD46     		mov	sp, r7
 2276              	.LCFI67:
 2277              		.cfi_def_cfa_register 13
 2278              		@ sp needed
 2279 0082 5DF8047B 		ldr	r7, [sp], #4
 2280              	.LCFI68:
 2281              		.cfi_restore 7
 2282              		.cfi_def_cfa_offset 0
 2283 0086 7047     		bx	lr
 2284              	.L105:
 2285              		.align	2
 2286              	.L104:
 2287 0088 00230140 		.word	1073816320
 2288              		.cfi_endproc
 2289              	.LFE231:
 2291              		.section	.text.ADC_MultiModeDMAConvCplt,"ax",%progbits
 2292              		.align	1
 2293              		.syntax unified
 2294              		.thumb
 2295              		.thumb_func
 2297              	ADC_MultiModeDMAConvCplt:
 2298              	.LFB232:
1017:Drivers/STM32F4xx_HAL_Driver/Src/stm32f4xx_hal_adc_ex.c **** 
1018:Drivers/STM32F4xx_HAL_Driver/Src/stm32f4xx_hal_adc_ex.c **** /**
1019:Drivers/STM32F4xx_HAL_Driver/Src/stm32f4xx_hal_adc_ex.c ****   * @}
ARM GAS  C:\Users\mauro\AppData\Local\Temp\cczNnVbS.s 			page 59


1020:Drivers/STM32F4xx_HAL_Driver/Src/stm32f4xx_hal_adc_ex.c ****   */
1021:Drivers/STM32F4xx_HAL_Driver/Src/stm32f4xx_hal_adc_ex.c **** 
1022:Drivers/STM32F4xx_HAL_Driver/Src/stm32f4xx_hal_adc_ex.c **** /**
1023:Drivers/STM32F4xx_HAL_Driver/Src/stm32f4xx_hal_adc_ex.c ****   * @brief  DMA transfer complete callback.
1024:Drivers/STM32F4xx_HAL_Driver/Src/stm32f4xx_hal_adc_ex.c ****   * @param  hdma pointer to a DMA_HandleTypeDef structure that contains
1025:Drivers/STM32F4xx_HAL_Driver/Src/stm32f4xx_hal_adc_ex.c ****   *                the configuration information for the specified DMA module.
1026:Drivers/STM32F4xx_HAL_Driver/Src/stm32f4xx_hal_adc_ex.c ****   * @retval None
1027:Drivers/STM32F4xx_HAL_Driver/Src/stm32f4xx_hal_adc_ex.c ****   */
1028:Drivers/STM32F4xx_HAL_Driver/Src/stm32f4xx_hal_adc_ex.c **** static void ADC_MultiModeDMAConvCplt(DMA_HandleTypeDef *hdma)
1029:Drivers/STM32F4xx_HAL_Driver/Src/stm32f4xx_hal_adc_ex.c **** {
 2299              		.loc 1 1029 1
 2300              		.cfi_startproc
 2301              		@ args = 0, pretend = 0, frame = 16
 2302              		@ frame_needed = 1, uses_anonymous_args = 0
 2303 0000 80B5     		push	{r7, lr}
 2304              	.LCFI69:
 2305              		.cfi_def_cfa_offset 8
 2306              		.cfi_offset 7, -8
 2307              		.cfi_offset 14, -4
 2308 0002 84B0     		sub	sp, sp, #16
 2309              	.LCFI70:
 2310              		.cfi_def_cfa_offset 24
 2311 0004 00AF     		add	r7, sp, #0
 2312              	.LCFI71:
 2313              		.cfi_def_cfa_register 7
 2314 0006 7860     		str	r0, [r7, #4]
1030:Drivers/STM32F4xx_HAL_Driver/Src/stm32f4xx_hal_adc_ex.c ****   /* Retrieve ADC handle corresponding to current DMA handle */
1031:Drivers/STM32F4xx_HAL_Driver/Src/stm32f4xx_hal_adc_ex.c ****   ADC_HandleTypeDef *hadc = (ADC_HandleTypeDef *)((DMA_HandleTypeDef *)hdma)->Parent;
 2315              		.loc 1 1031 22
 2316 0008 7B68     		ldr	r3, [r7, #4]
 2317 000a 9B6B     		ldr	r3, [r3, #56]
 2318 000c FB60     		str	r3, [r7, #12]
1032:Drivers/STM32F4xx_HAL_Driver/Src/stm32f4xx_hal_adc_ex.c **** 
1033:Drivers/STM32F4xx_HAL_Driver/Src/stm32f4xx_hal_adc_ex.c ****   /* Update state machine on conversion status if not in error state */
1034:Drivers/STM32F4xx_HAL_Driver/Src/stm32f4xx_hal_adc_ex.c ****   if (HAL_IS_BIT_CLR(hadc->State, HAL_ADC_STATE_ERROR_INTERNAL | HAL_ADC_STATE_ERROR_DMA))
 2319              		.loc 1 1034 7
 2320 000e FB68     		ldr	r3, [r7, #12]
 2321 0010 1B6C     		ldr	r3, [r3, #64]
 2322 0012 03F05003 		and	r3, r3, #80
 2323              		.loc 1 1034 6
 2324 0016 002B     		cmp	r3, #0
 2325 0018 3CD1     		bne	.L107
1035:Drivers/STM32F4xx_HAL_Driver/Src/stm32f4xx_hal_adc_ex.c ****   {
1036:Drivers/STM32F4xx_HAL_Driver/Src/stm32f4xx_hal_adc_ex.c ****     /* Update ADC state machine */
1037:Drivers/STM32F4xx_HAL_Driver/Src/stm32f4xx_hal_adc_ex.c ****     SET_BIT(hadc->State, HAL_ADC_STATE_REG_EOC);
 2326              		.loc 1 1037 5
 2327 001a FB68     		ldr	r3, [r7, #12]
 2328 001c 1B6C     		ldr	r3, [r3, #64]
 2329 001e 43F40072 		orr	r2, r3, #512
 2330 0022 FB68     		ldr	r3, [r7, #12]
 2331 0024 1A64     		str	r2, [r3, #64]
1038:Drivers/STM32F4xx_HAL_Driver/Src/stm32f4xx_hal_adc_ex.c **** 
1039:Drivers/STM32F4xx_HAL_Driver/Src/stm32f4xx_hal_adc_ex.c ****     /* Determine whether any further conversion upcoming on group regular   */
1040:Drivers/STM32F4xx_HAL_Driver/Src/stm32f4xx_hal_adc_ex.c ****     /* by external trigger, continuous mode or scan sequence on going.      */
1041:Drivers/STM32F4xx_HAL_Driver/Src/stm32f4xx_hal_adc_ex.c ****     /* Note: On STM32F4, there is no independent flag of end of sequence.   */
1042:Drivers/STM32F4xx_HAL_Driver/Src/stm32f4xx_hal_adc_ex.c ****     /*       The test of scan sequence on going is done either with scan    */
1043:Drivers/STM32F4xx_HAL_Driver/Src/stm32f4xx_hal_adc_ex.c ****     /*       sequence disabled or with end of conversion flag set to        */
ARM GAS  C:\Users\mauro\AppData\Local\Temp\cczNnVbS.s 			page 60


1044:Drivers/STM32F4xx_HAL_Driver/Src/stm32f4xx_hal_adc_ex.c ****     /*       of end of sequence.                                            */
1045:Drivers/STM32F4xx_HAL_Driver/Src/stm32f4xx_hal_adc_ex.c ****     if (ADC_IS_SOFTWARE_START_REGULAR(hadc)                   &&
 2332              		.loc 1 1045 9
 2333 0026 FB68     		ldr	r3, [r7, #12]
 2334 0028 1B68     		ldr	r3, [r3]
 2335 002a 9B68     		ldr	r3, [r3, #8]
 2336 002c 03F04053 		and	r3, r3, #805306368
 2337              		.loc 1 1045 8
 2338 0030 002B     		cmp	r3, #0
 2339 0032 2BD1     		bne	.L108
1046:Drivers/STM32F4xx_HAL_Driver/Src/stm32f4xx_hal_adc_ex.c ****         (hadc->Init.ContinuousConvMode == DISABLE)            &&
 2340              		.loc 1 1046 20 discriminator 1
 2341 0034 FB68     		ldr	r3, [r7, #12]
 2342 0036 1B7E     		ldrb	r3, [r3, #24]	@ zero_extendqisi2
1045:Drivers/STM32F4xx_HAL_Driver/Src/stm32f4xx_hal_adc_ex.c ****         (hadc->Init.ContinuousConvMode == DISABLE)            &&
 2343              		.loc 1 1045 63 discriminator 1
 2344 0038 002B     		cmp	r3, #0
 2345 003a 27D1     		bne	.L108
1047:Drivers/STM32F4xx_HAL_Driver/Src/stm32f4xx_hal_adc_ex.c ****         (HAL_IS_BIT_CLR(hadc->Instance->SQR1, ADC_SQR1_L) ||
 2346              		.loc 1 1047 10
 2347 003c FB68     		ldr	r3, [r7, #12]
 2348 003e 1B68     		ldr	r3, [r3]
 2349 0040 DB6A     		ldr	r3, [r3, #44]
 2350 0042 03F47003 		and	r3, r3, #15728640
1046:Drivers/STM32F4xx_HAL_Driver/Src/stm32f4xx_hal_adc_ex.c ****         (hadc->Init.ContinuousConvMode == DISABLE)            &&
 2351              		.loc 1 1046 63
 2352 0046 002B     		cmp	r3, #0
 2353 0048 06D0     		beq	.L109
1048:Drivers/STM32F4xx_HAL_Driver/Src/stm32f4xx_hal_adc_ex.c ****          HAL_IS_BIT_CLR(hadc->Instance->CR2, ADC_CR2_EOCS)))
 2354              		.loc 1 1048 10
 2355 004a FB68     		ldr	r3, [r7, #12]
 2356 004c 1B68     		ldr	r3, [r3]
 2357 004e 9B68     		ldr	r3, [r3, #8]
 2358 0050 03F48063 		and	r3, r3, #1024
1047:Drivers/STM32F4xx_HAL_Driver/Src/stm32f4xx_hal_adc_ex.c ****         (HAL_IS_BIT_CLR(hadc->Instance->SQR1, ADC_SQR1_L) ||
 2359              		.loc 1 1047 59
 2360 0054 002B     		cmp	r3, #0
 2361 0056 19D1     		bne	.L108
 2362              	.L109:
1049:Drivers/STM32F4xx_HAL_Driver/Src/stm32f4xx_hal_adc_ex.c ****     {
1050:Drivers/STM32F4xx_HAL_Driver/Src/stm32f4xx_hal_adc_ex.c ****       /* Disable ADC end of single conversion interrupt on group regular */
1051:Drivers/STM32F4xx_HAL_Driver/Src/stm32f4xx_hal_adc_ex.c ****       /* Note: Overrun interrupt was enabled with EOC interrupt in          */
1052:Drivers/STM32F4xx_HAL_Driver/Src/stm32f4xx_hal_adc_ex.c ****       /* HAL_ADC_Start_IT(), but is not disabled here because can be used   */
1053:Drivers/STM32F4xx_HAL_Driver/Src/stm32f4xx_hal_adc_ex.c ****       /* by overrun IRQ process below.                                      */
1054:Drivers/STM32F4xx_HAL_Driver/Src/stm32f4xx_hal_adc_ex.c ****       __HAL_ADC_DISABLE_IT(hadc, ADC_IT_EOC);
 2363              		.loc 1 1054 7
 2364 0058 FB68     		ldr	r3, [r7, #12]
 2365 005a 1B68     		ldr	r3, [r3]
 2366 005c 5A68     		ldr	r2, [r3, #4]
 2367 005e FB68     		ldr	r3, [r7, #12]
 2368 0060 1B68     		ldr	r3, [r3]
 2369 0062 22F02002 		bic	r2, r2, #32
 2370 0066 5A60     		str	r2, [r3, #4]
1055:Drivers/STM32F4xx_HAL_Driver/Src/stm32f4xx_hal_adc_ex.c **** 
1056:Drivers/STM32F4xx_HAL_Driver/Src/stm32f4xx_hal_adc_ex.c ****       /* Set ADC state */
1057:Drivers/STM32F4xx_HAL_Driver/Src/stm32f4xx_hal_adc_ex.c ****       CLEAR_BIT(hadc->State, HAL_ADC_STATE_REG_BUSY);
 2371              		.loc 1 1057 7
ARM GAS  C:\Users\mauro\AppData\Local\Temp\cczNnVbS.s 			page 61


 2372 0068 FB68     		ldr	r3, [r7, #12]
 2373 006a 1B6C     		ldr	r3, [r3, #64]
 2374 006c 23F48072 		bic	r2, r3, #256
 2375 0070 FB68     		ldr	r3, [r7, #12]
 2376 0072 1A64     		str	r2, [r3, #64]
1058:Drivers/STM32F4xx_HAL_Driver/Src/stm32f4xx_hal_adc_ex.c **** 
1059:Drivers/STM32F4xx_HAL_Driver/Src/stm32f4xx_hal_adc_ex.c ****       if (HAL_IS_BIT_CLR(hadc->State, HAL_ADC_STATE_INJ_BUSY))
 2377              		.loc 1 1059 11
 2378 0074 FB68     		ldr	r3, [r7, #12]
 2379 0076 1B6C     		ldr	r3, [r3, #64]
 2380 0078 03F48053 		and	r3, r3, #4096
 2381              		.loc 1 1059 10
 2382 007c 002B     		cmp	r3, #0
 2383 007e 05D1     		bne	.L108
1060:Drivers/STM32F4xx_HAL_Driver/Src/stm32f4xx_hal_adc_ex.c ****       {
1061:Drivers/STM32F4xx_HAL_Driver/Src/stm32f4xx_hal_adc_ex.c ****         SET_BIT(hadc->State, HAL_ADC_STATE_READY);
 2384              		.loc 1 1061 9
 2385 0080 FB68     		ldr	r3, [r7, #12]
 2386 0082 1B6C     		ldr	r3, [r3, #64]
 2387 0084 43F00102 		orr	r2, r3, #1
 2388 0088 FB68     		ldr	r3, [r7, #12]
 2389 008a 1A64     		str	r2, [r3, #64]
 2390              	.L108:
1062:Drivers/STM32F4xx_HAL_Driver/Src/stm32f4xx_hal_adc_ex.c ****       }
1063:Drivers/STM32F4xx_HAL_Driver/Src/stm32f4xx_hal_adc_ex.c ****     }
1064:Drivers/STM32F4xx_HAL_Driver/Src/stm32f4xx_hal_adc_ex.c **** 
1065:Drivers/STM32F4xx_HAL_Driver/Src/stm32f4xx_hal_adc_ex.c ****     /* Conversion complete callback */
1066:Drivers/STM32F4xx_HAL_Driver/Src/stm32f4xx_hal_adc_ex.c ****     HAL_ADC_ConvCpltCallback(hadc);
 2391              		.loc 1 1066 5
 2392 008c F868     		ldr	r0, [r7, #12]
 2393 008e FFF7FEFF 		bl	HAL_ADC_ConvCpltCallback
1067:Drivers/STM32F4xx_HAL_Driver/Src/stm32f4xx_hal_adc_ex.c ****   }
1068:Drivers/STM32F4xx_HAL_Driver/Src/stm32f4xx_hal_adc_ex.c ****   else
1069:Drivers/STM32F4xx_HAL_Driver/Src/stm32f4xx_hal_adc_ex.c ****   {
1070:Drivers/STM32F4xx_HAL_Driver/Src/stm32f4xx_hal_adc_ex.c ****     /* Call DMA error callback */
1071:Drivers/STM32F4xx_HAL_Driver/Src/stm32f4xx_hal_adc_ex.c ****     hadc->DMA_Handle->XferErrorCallback(hdma);
1072:Drivers/STM32F4xx_HAL_Driver/Src/stm32f4xx_hal_adc_ex.c ****   }
1073:Drivers/STM32F4xx_HAL_Driver/Src/stm32f4xx_hal_adc_ex.c **** }
 2394              		.loc 1 1073 1
 2395 0092 04E0     		b	.L111
 2396              	.L107:
1071:Drivers/STM32F4xx_HAL_Driver/Src/stm32f4xx_hal_adc_ex.c ****   }
 2397              		.loc 1 1071 9
 2398 0094 FB68     		ldr	r3, [r7, #12]
 2399 0096 9B6B     		ldr	r3, [r3, #56]
1071:Drivers/STM32F4xx_HAL_Driver/Src/stm32f4xx_hal_adc_ex.c ****   }
 2400              		.loc 1 1071 21
 2401 0098 DB6C     		ldr	r3, [r3, #76]
1071:Drivers/STM32F4xx_HAL_Driver/Src/stm32f4xx_hal_adc_ex.c ****   }
 2402              		.loc 1 1071 5
 2403 009a 7868     		ldr	r0, [r7, #4]
 2404 009c 9847     		blx	r3
 2405              	.LVL0:
 2406              	.L111:
 2407              		.loc 1 1073 1
 2408 009e 00BF     		nop
 2409 00a0 1037     		adds	r7, r7, #16
ARM GAS  C:\Users\mauro\AppData\Local\Temp\cczNnVbS.s 			page 62


 2410              	.LCFI72:
 2411              		.cfi_def_cfa_offset 8
 2412 00a2 BD46     		mov	sp, r7
 2413              	.LCFI73:
 2414              		.cfi_def_cfa_register 13
 2415              		@ sp needed
 2416 00a4 80BD     		pop	{r7, pc}
 2417              		.cfi_endproc
 2418              	.LFE232:
 2420              		.section	.text.ADC_MultiModeDMAHalfConvCplt,"ax",%progbits
 2421              		.align	1
 2422              		.syntax unified
 2423              		.thumb
 2424              		.thumb_func
 2426              	ADC_MultiModeDMAHalfConvCplt:
 2427              	.LFB233:
1074:Drivers/STM32F4xx_HAL_Driver/Src/stm32f4xx_hal_adc_ex.c **** 
1075:Drivers/STM32F4xx_HAL_Driver/Src/stm32f4xx_hal_adc_ex.c **** /**
1076:Drivers/STM32F4xx_HAL_Driver/Src/stm32f4xx_hal_adc_ex.c ****   * @brief  DMA half transfer complete callback.
1077:Drivers/STM32F4xx_HAL_Driver/Src/stm32f4xx_hal_adc_ex.c ****   * @param  hdma pointer to a DMA_HandleTypeDef structure that contains
1078:Drivers/STM32F4xx_HAL_Driver/Src/stm32f4xx_hal_adc_ex.c ****   *                the configuration information for the specified DMA module.
1079:Drivers/STM32F4xx_HAL_Driver/Src/stm32f4xx_hal_adc_ex.c ****   * @retval None
1080:Drivers/STM32F4xx_HAL_Driver/Src/stm32f4xx_hal_adc_ex.c ****   */
1081:Drivers/STM32F4xx_HAL_Driver/Src/stm32f4xx_hal_adc_ex.c **** static void ADC_MultiModeDMAHalfConvCplt(DMA_HandleTypeDef *hdma)
1082:Drivers/STM32F4xx_HAL_Driver/Src/stm32f4xx_hal_adc_ex.c **** {
 2428              		.loc 1 1082 1
 2429              		.cfi_startproc
 2430              		@ args = 0, pretend = 0, frame = 16
 2431              		@ frame_needed = 1, uses_anonymous_args = 0
 2432 0000 80B5     		push	{r7, lr}
 2433              	.LCFI74:
 2434              		.cfi_def_cfa_offset 8
 2435              		.cfi_offset 7, -8
 2436              		.cfi_offset 14, -4
 2437 0002 84B0     		sub	sp, sp, #16
 2438              	.LCFI75:
 2439              		.cfi_def_cfa_offset 24
 2440 0004 00AF     		add	r7, sp, #0
 2441              	.LCFI76:
 2442              		.cfi_def_cfa_register 7
 2443 0006 7860     		str	r0, [r7, #4]
1083:Drivers/STM32F4xx_HAL_Driver/Src/stm32f4xx_hal_adc_ex.c ****   ADC_HandleTypeDef *hadc = (ADC_HandleTypeDef *)((DMA_HandleTypeDef *)hdma)->Parent;
 2444              		.loc 1 1083 22
 2445 0008 7B68     		ldr	r3, [r7, #4]
 2446 000a 9B6B     		ldr	r3, [r3, #56]
 2447 000c FB60     		str	r3, [r7, #12]
1084:Drivers/STM32F4xx_HAL_Driver/Src/stm32f4xx_hal_adc_ex.c ****   /* Conversion complete callback */
1085:Drivers/STM32F4xx_HAL_Driver/Src/stm32f4xx_hal_adc_ex.c ****   HAL_ADC_ConvHalfCpltCallback(hadc);
 2448              		.loc 1 1085 3
 2449 000e F868     		ldr	r0, [r7, #12]
 2450 0010 FFF7FEFF 		bl	HAL_ADC_ConvHalfCpltCallback
1086:Drivers/STM32F4xx_HAL_Driver/Src/stm32f4xx_hal_adc_ex.c **** }
 2451              		.loc 1 1086 1
 2452 0014 00BF     		nop
 2453 0016 1037     		adds	r7, r7, #16
 2454              	.LCFI77:
 2455              		.cfi_def_cfa_offset 8
ARM GAS  C:\Users\mauro\AppData\Local\Temp\cczNnVbS.s 			page 63


 2456 0018 BD46     		mov	sp, r7
 2457              	.LCFI78:
 2458              		.cfi_def_cfa_register 13
 2459              		@ sp needed
 2460 001a 80BD     		pop	{r7, pc}
 2461              		.cfi_endproc
 2462              	.LFE233:
 2464              		.section	.text.ADC_MultiModeDMAError,"ax",%progbits
 2465              		.align	1
 2466              		.syntax unified
 2467              		.thumb
 2468              		.thumb_func
 2470              	ADC_MultiModeDMAError:
 2471              	.LFB234:
1087:Drivers/STM32F4xx_HAL_Driver/Src/stm32f4xx_hal_adc_ex.c **** 
1088:Drivers/STM32F4xx_HAL_Driver/Src/stm32f4xx_hal_adc_ex.c **** /**
1089:Drivers/STM32F4xx_HAL_Driver/Src/stm32f4xx_hal_adc_ex.c ****   * @brief  DMA error callback
1090:Drivers/STM32F4xx_HAL_Driver/Src/stm32f4xx_hal_adc_ex.c ****   * @param  hdma pointer to a DMA_HandleTypeDef structure that contains
1091:Drivers/STM32F4xx_HAL_Driver/Src/stm32f4xx_hal_adc_ex.c ****   *                the configuration information for the specified DMA module.
1092:Drivers/STM32F4xx_HAL_Driver/Src/stm32f4xx_hal_adc_ex.c ****   * @retval None
1093:Drivers/STM32F4xx_HAL_Driver/Src/stm32f4xx_hal_adc_ex.c ****   */
1094:Drivers/STM32F4xx_HAL_Driver/Src/stm32f4xx_hal_adc_ex.c **** static void ADC_MultiModeDMAError(DMA_HandleTypeDef *hdma)
1095:Drivers/STM32F4xx_HAL_Driver/Src/stm32f4xx_hal_adc_ex.c **** {
 2472              		.loc 1 1095 1
 2473              		.cfi_startproc
 2474              		@ args = 0, pretend = 0, frame = 16
 2475              		@ frame_needed = 1, uses_anonymous_args = 0
 2476 0000 80B5     		push	{r7, lr}
 2477              	.LCFI79:
 2478              		.cfi_def_cfa_offset 8
 2479              		.cfi_offset 7, -8
 2480              		.cfi_offset 14, -4
 2481 0002 84B0     		sub	sp, sp, #16
 2482              	.LCFI80:
 2483              		.cfi_def_cfa_offset 24
 2484 0004 00AF     		add	r7, sp, #0
 2485              	.LCFI81:
 2486              		.cfi_def_cfa_register 7
 2487 0006 7860     		str	r0, [r7, #4]
1096:Drivers/STM32F4xx_HAL_Driver/Src/stm32f4xx_hal_adc_ex.c ****   ADC_HandleTypeDef *hadc = (ADC_HandleTypeDef *)((DMA_HandleTypeDef *)hdma)->Parent;
 2488              		.loc 1 1096 22
 2489 0008 7B68     		ldr	r3, [r7, #4]
 2490 000a 9B6B     		ldr	r3, [r3, #56]
 2491 000c FB60     		str	r3, [r7, #12]
1097:Drivers/STM32F4xx_HAL_Driver/Src/stm32f4xx_hal_adc_ex.c ****   hadc->State = HAL_ADC_STATE_ERROR_DMA;
 2492              		.loc 1 1097 15
 2493 000e FB68     		ldr	r3, [r7, #12]
 2494 0010 4022     		movs	r2, #64
 2495 0012 1A64     		str	r2, [r3, #64]
1098:Drivers/STM32F4xx_HAL_Driver/Src/stm32f4xx_hal_adc_ex.c ****   /* Set ADC error code to DMA error */
1099:Drivers/STM32F4xx_HAL_Driver/Src/stm32f4xx_hal_adc_ex.c ****   hadc->ErrorCode |= HAL_ADC_ERROR_DMA;
 2496              		.loc 1 1099 19
 2497 0014 FB68     		ldr	r3, [r7, #12]
 2498 0016 5B6C     		ldr	r3, [r3, #68]
 2499 0018 43F00402 		orr	r2, r3, #4
 2500 001c FB68     		ldr	r3, [r7, #12]
 2501 001e 5A64     		str	r2, [r3, #68]
ARM GAS  C:\Users\mauro\AppData\Local\Temp\cczNnVbS.s 			page 64


1100:Drivers/STM32F4xx_HAL_Driver/Src/stm32f4xx_hal_adc_ex.c ****   HAL_ADC_ErrorCallback(hadc);
 2502              		.loc 1 1100 3
 2503 0020 F868     		ldr	r0, [r7, #12]
 2504 0022 FFF7FEFF 		bl	HAL_ADC_ErrorCallback
1101:Drivers/STM32F4xx_HAL_Driver/Src/stm32f4xx_hal_adc_ex.c **** }
 2505              		.loc 1 1101 1
 2506 0026 00BF     		nop
 2507 0028 1037     		adds	r7, r7, #16
 2508              	.LCFI82:
 2509              		.cfi_def_cfa_offset 8
 2510 002a BD46     		mov	sp, r7
 2511              	.LCFI83:
 2512              		.cfi_def_cfa_register 13
 2513              		@ sp needed
 2514 002c 80BD     		pop	{r7, pc}
 2515              		.cfi_endproc
 2516              	.LFE234:
 2518              		.text
 2519              	.Letext0:
 2520              		.file 2 "c:\\arm-gcc\\tools\\arm-gnu-toolchain-11.3.rel1-mingw-w64-i686-arm-none-eabi\\arm-none-ea
 2521              		.file 3 "c:\\arm-gcc\\tools\\arm-gnu-toolchain-11.3.rel1-mingw-w64-i686-arm-none-eabi\\arm-none-ea
 2522              		.file 4 "Drivers/CMSIS/Device/ST/STM32F4xx/Include/stm32f411xe.h"
 2523              		.file 5 "Drivers/CMSIS/Device/ST/STM32F4xx/Include/stm32f4xx.h"
 2524              		.file 6 "Drivers/STM32F4xx_HAL_Driver/Inc/stm32f4xx_hal_def.h"
 2525              		.file 7 "Drivers/STM32F4xx_HAL_Driver/Inc/stm32f4xx_hal_dma.h"
 2526              		.file 8 "Drivers/STM32F4xx_HAL_Driver/Inc/stm32f4xx_hal_adc.h"
 2527              		.file 9 "Drivers/STM32F4xx_HAL_Driver/Inc/stm32f4xx_hal_adc_ex.h"
 2528              		.file 10 "Drivers/CMSIS/Device/ST/STM32F4xx/Include/system_stm32f4xx.h"
 2529              		.file 11 "Drivers/STM32F4xx_HAL_Driver/Inc/stm32f4xx_hal.h"
ARM GAS  C:\Users\mauro\AppData\Local\Temp\cczNnVbS.s 			page 65

