ARM GAS  C:\Users\DAELT-~1\AppData\Local\Temp\ccxtwJwK.s 			page 1


   1              		.cpu cortex-m4
   2              		.arch armv7e-m
   3              		.fpu fpv4-sp-d16
   4              		.eabi_attribute 27, 1
   5              		.eabi_attribute 28, 1
   6              		.eabi_attribute 20, 1
   7              		.eabi_attribute 21, 1
   8              		.eabi_attribute 23, 3
   9              		.eabi_attribute 24, 1
  10              		.eabi_attribute 25, 1
  11              		.eabi_attribute 26, 1
  12              		.eabi_attribute 30, 1
  13              		.eabi_attribute 34, 1
  14              		.eabi_attribute 18, 4
  15              		.file	"usbd_conf.c"
  16              		.text
  17              	.Ltext0:
  18              		.cfi_sections	.debug_frame
  19              		.file 1 "USB_DEVICE/Target/usbd_conf.c"
  20              		.section	.text.HAL_PCD_MspInit,"ax",%progbits
  21              		.align	1
  22              		.global	HAL_PCD_MspInit
  23              		.syntax unified
  24              		.thumb
  25              		.thumb_func
  27              	HAL_PCD_MspInit:
  28              	.LVL0:
  29              	.LFB224:
   1:USB_DEVICE/Target/usbd_conf.c **** /* USER CODE BEGIN Header */
   2:USB_DEVICE/Target/usbd_conf.c **** /**
   3:USB_DEVICE/Target/usbd_conf.c ****   ******************************************************************************
   4:USB_DEVICE/Target/usbd_conf.c ****   * @file           : Target/usbd_conf.c
   5:USB_DEVICE/Target/usbd_conf.c ****   * @version        : v1.0_Cube
   6:USB_DEVICE/Target/usbd_conf.c ****   * @brief          : This file implements the board support package for the USB device library
   7:USB_DEVICE/Target/usbd_conf.c ****   ******************************************************************************
   8:USB_DEVICE/Target/usbd_conf.c ****   * @attention
   9:USB_DEVICE/Target/usbd_conf.c ****   *
  10:USB_DEVICE/Target/usbd_conf.c ****   * Copyright (c) 2025 STMicroelectronics.
  11:USB_DEVICE/Target/usbd_conf.c ****   * All rights reserved.
  12:USB_DEVICE/Target/usbd_conf.c ****   *
  13:USB_DEVICE/Target/usbd_conf.c ****   * This software is licensed under terms that can be found in the LICENSE file
  14:USB_DEVICE/Target/usbd_conf.c ****   * in the root directory of this software component.
  15:USB_DEVICE/Target/usbd_conf.c ****   * If no LICENSE file comes with this software, it is provided AS-IS.
  16:USB_DEVICE/Target/usbd_conf.c ****   *
  17:USB_DEVICE/Target/usbd_conf.c ****   ******************************************************************************
  18:USB_DEVICE/Target/usbd_conf.c ****   */
  19:USB_DEVICE/Target/usbd_conf.c **** /* USER CODE END Header */
  20:USB_DEVICE/Target/usbd_conf.c **** 
  21:USB_DEVICE/Target/usbd_conf.c **** /* Includes ------------------------------------------------------------------*/
  22:USB_DEVICE/Target/usbd_conf.c **** #include "stm32f4xx.h"
  23:USB_DEVICE/Target/usbd_conf.c **** #include "stm32f4xx_hal.h"
  24:USB_DEVICE/Target/usbd_conf.c **** #include "usbd_def.h"
  25:USB_DEVICE/Target/usbd_conf.c **** #include "usbd_core.h"
  26:USB_DEVICE/Target/usbd_conf.c **** 
  27:USB_DEVICE/Target/usbd_conf.c **** #include "usbd_cdc.h"
  28:USB_DEVICE/Target/usbd_conf.c **** 
  29:USB_DEVICE/Target/usbd_conf.c **** /* USER CODE BEGIN Includes */
ARM GAS  C:\Users\DAELT-~1\AppData\Local\Temp\ccxtwJwK.s 			page 2


  30:USB_DEVICE/Target/usbd_conf.c **** 
  31:USB_DEVICE/Target/usbd_conf.c **** /* USER CODE END Includes */
  32:USB_DEVICE/Target/usbd_conf.c **** 
  33:USB_DEVICE/Target/usbd_conf.c **** /* Private typedef -----------------------------------------------------------*/
  34:USB_DEVICE/Target/usbd_conf.c **** /* Private define ------------------------------------------------------------*/
  35:USB_DEVICE/Target/usbd_conf.c **** /* Private macro -------------------------------------------------------------*/
  36:USB_DEVICE/Target/usbd_conf.c **** 
  37:USB_DEVICE/Target/usbd_conf.c **** /* USER CODE BEGIN PV */
  38:USB_DEVICE/Target/usbd_conf.c **** /* Private variables ---------------------------------------------------------*/
  39:USB_DEVICE/Target/usbd_conf.c **** 
  40:USB_DEVICE/Target/usbd_conf.c **** /* USER CODE END PV */
  41:USB_DEVICE/Target/usbd_conf.c **** 
  42:USB_DEVICE/Target/usbd_conf.c **** PCD_HandleTypeDef hpcd_USB_OTG_FS;
  43:USB_DEVICE/Target/usbd_conf.c **** void Error_Handler(void);
  44:USB_DEVICE/Target/usbd_conf.c **** 
  45:USB_DEVICE/Target/usbd_conf.c **** /* External functions --------------------------------------------------------*/
  46:USB_DEVICE/Target/usbd_conf.c **** void SystemClock_Config(void);
  47:USB_DEVICE/Target/usbd_conf.c **** 
  48:USB_DEVICE/Target/usbd_conf.c **** /* USER CODE BEGIN 0 */
  49:USB_DEVICE/Target/usbd_conf.c **** 
  50:USB_DEVICE/Target/usbd_conf.c **** /* USER CODE END 0 */
  51:USB_DEVICE/Target/usbd_conf.c **** 
  52:USB_DEVICE/Target/usbd_conf.c **** /* USER CODE BEGIN PFP */
  53:USB_DEVICE/Target/usbd_conf.c **** /* Private function prototypes -----------------------------------------------*/
  54:USB_DEVICE/Target/usbd_conf.c **** USBD_StatusTypeDef USBD_Get_USB_Status(HAL_StatusTypeDef hal_status);
  55:USB_DEVICE/Target/usbd_conf.c **** 
  56:USB_DEVICE/Target/usbd_conf.c **** /* USER CODE END PFP */
  57:USB_DEVICE/Target/usbd_conf.c **** 
  58:USB_DEVICE/Target/usbd_conf.c **** /* Private functions ---------------------------------------------------------*/
  59:USB_DEVICE/Target/usbd_conf.c **** 
  60:USB_DEVICE/Target/usbd_conf.c **** /* USER CODE BEGIN 1 */
  61:USB_DEVICE/Target/usbd_conf.c **** 
  62:USB_DEVICE/Target/usbd_conf.c **** /* USER CODE END 1 */
  63:USB_DEVICE/Target/usbd_conf.c **** 
  64:USB_DEVICE/Target/usbd_conf.c **** /*******************************************************************************
  65:USB_DEVICE/Target/usbd_conf.c ****                        LL Driver Callbacks (PCD -> USB Device Library)
  66:USB_DEVICE/Target/usbd_conf.c **** *******************************************************************************/
  67:USB_DEVICE/Target/usbd_conf.c **** /* MSP Init */
  68:USB_DEVICE/Target/usbd_conf.c **** 
  69:USB_DEVICE/Target/usbd_conf.c **** void HAL_PCD_MspInit(PCD_HandleTypeDef* pcdHandle)
  70:USB_DEVICE/Target/usbd_conf.c **** {
  30              		.loc 1 70 1 view -0
  31              		.cfi_startproc
  32              		@ args = 0, pretend = 0, frame = 32
  33              		@ frame_needed = 0, uses_anonymous_args = 0
  34              		.loc 1 70 1 is_stmt 0 view .LVU1
  35 0000 30B5     		push	{r4, r5, lr}
  36              	.LCFI0:
  37              		.cfi_def_cfa_offset 12
  38              		.cfi_offset 4, -12
  39              		.cfi_offset 5, -8
  40              		.cfi_offset 14, -4
  41 0002 89B0     		sub	sp, sp, #36
  42              	.LCFI1:
  43              		.cfi_def_cfa_offset 48
  71:USB_DEVICE/Target/usbd_conf.c ****   GPIO_InitTypeDef GPIO_InitStruct = {0};
  44              		.loc 1 71 3 is_stmt 1 view .LVU2
ARM GAS  C:\Users\DAELT-~1\AppData\Local\Temp\ccxtwJwK.s 			page 3


  45              		.loc 1 71 20 is_stmt 0 view .LVU3
  46 0004 0023     		movs	r3, #0
  47 0006 0393     		str	r3, [sp, #12]
  48 0008 0493     		str	r3, [sp, #16]
  49 000a 0593     		str	r3, [sp, #20]
  50 000c 0693     		str	r3, [sp, #24]
  51 000e 0793     		str	r3, [sp, #28]
  72:USB_DEVICE/Target/usbd_conf.c ****   if(pcdHandle->Instance==USB_OTG_FS)
  52              		.loc 1 72 3 is_stmt 1 view .LVU4
  53              		.loc 1 72 15 is_stmt 0 view .LVU5
  54 0010 0368     		ldr	r3, [r0]
  55              		.loc 1 72 5 view .LVU6
  56 0012 B3F1A04F 		cmp	r3, #1342177280
  57 0016 01D0     		beq	.L4
  58              	.LVL1:
  59              	.L1:
  73:USB_DEVICE/Target/usbd_conf.c ****   {
  74:USB_DEVICE/Target/usbd_conf.c ****   /* USER CODE BEGIN USB_OTG_FS_MspInit 0 */
  75:USB_DEVICE/Target/usbd_conf.c **** 
  76:USB_DEVICE/Target/usbd_conf.c ****   /* USER CODE END USB_OTG_FS_MspInit 0 */
  77:USB_DEVICE/Target/usbd_conf.c **** 
  78:USB_DEVICE/Target/usbd_conf.c ****     __HAL_RCC_GPIOA_CLK_ENABLE();
  79:USB_DEVICE/Target/usbd_conf.c ****     /**USB_OTG_FS GPIO Configuration
  80:USB_DEVICE/Target/usbd_conf.c ****     PA11     ------> USB_OTG_FS_DM
  81:USB_DEVICE/Target/usbd_conf.c ****     PA12     ------> USB_OTG_FS_DP
  82:USB_DEVICE/Target/usbd_conf.c ****     */
  83:USB_DEVICE/Target/usbd_conf.c ****     GPIO_InitStruct.Pin = GPIO_PIN_11|GPIO_PIN_12;
  84:USB_DEVICE/Target/usbd_conf.c ****     GPIO_InitStruct.Mode = GPIO_MODE_AF_PP;
  85:USB_DEVICE/Target/usbd_conf.c ****     GPIO_InitStruct.Pull = GPIO_NOPULL;
  86:USB_DEVICE/Target/usbd_conf.c ****     GPIO_InitStruct.Speed = GPIO_SPEED_FREQ_VERY_HIGH;
  87:USB_DEVICE/Target/usbd_conf.c ****     GPIO_InitStruct.Alternate = GPIO_AF10_OTG_FS;
  88:USB_DEVICE/Target/usbd_conf.c ****     HAL_GPIO_Init(GPIOA, &GPIO_InitStruct);
  89:USB_DEVICE/Target/usbd_conf.c **** 
  90:USB_DEVICE/Target/usbd_conf.c ****     /* Peripheral clock enable */
  91:USB_DEVICE/Target/usbd_conf.c ****     __HAL_RCC_USB_OTG_FS_CLK_ENABLE();
  92:USB_DEVICE/Target/usbd_conf.c **** 
  93:USB_DEVICE/Target/usbd_conf.c ****     /* Peripheral interrupt init */
  94:USB_DEVICE/Target/usbd_conf.c ****     HAL_NVIC_SetPriority(OTG_FS_IRQn, 0, 0);
  95:USB_DEVICE/Target/usbd_conf.c ****     HAL_NVIC_EnableIRQ(OTG_FS_IRQn);
  96:USB_DEVICE/Target/usbd_conf.c ****   /* USER CODE BEGIN USB_OTG_FS_MspInit 1 */
  97:USB_DEVICE/Target/usbd_conf.c **** 
  98:USB_DEVICE/Target/usbd_conf.c ****   /* USER CODE END USB_OTG_FS_MspInit 1 */
  99:USB_DEVICE/Target/usbd_conf.c ****   }
 100:USB_DEVICE/Target/usbd_conf.c **** }
  60              		.loc 1 100 1 view .LVU7
  61 0018 09B0     		add	sp, sp, #36
  62              	.LCFI2:
  63              		.cfi_remember_state
  64              		.cfi_def_cfa_offset 12
  65              		@ sp needed
  66 001a 30BD     		pop	{r4, r5, pc}
  67              	.LVL2:
  68              	.L4:
  69              	.LCFI3:
  70              		.cfi_restore_state
  78:USB_DEVICE/Target/usbd_conf.c ****     /**USB_OTG_FS GPIO Configuration
  71              		.loc 1 78 5 is_stmt 1 view .LVU8
ARM GAS  C:\Users\DAELT-~1\AppData\Local\Temp\ccxtwJwK.s 			page 4


  72              	.LBB2:
  78:USB_DEVICE/Target/usbd_conf.c ****     /**USB_OTG_FS GPIO Configuration
  73              		.loc 1 78 5 view .LVU9
  74 001c 0025     		movs	r5, #0
  75 001e 0195     		str	r5, [sp, #4]
  78:USB_DEVICE/Target/usbd_conf.c ****     /**USB_OTG_FS GPIO Configuration
  76              		.loc 1 78 5 view .LVU10
  77 0020 164C     		ldr	r4, .L5
  78 0022 236B     		ldr	r3, [r4, #48]
  79 0024 43F00103 		orr	r3, r3, #1
  80 0028 2363     		str	r3, [r4, #48]
  78:USB_DEVICE/Target/usbd_conf.c ****     /**USB_OTG_FS GPIO Configuration
  81              		.loc 1 78 5 view .LVU11
  82 002a 236B     		ldr	r3, [r4, #48]
  83 002c 03F00103 		and	r3, r3, #1
  84 0030 0193     		str	r3, [sp, #4]
  78:USB_DEVICE/Target/usbd_conf.c ****     /**USB_OTG_FS GPIO Configuration
  85              		.loc 1 78 5 view .LVU12
  86 0032 019B     		ldr	r3, [sp, #4]
  87              	.LBE2:
  78:USB_DEVICE/Target/usbd_conf.c ****     /**USB_OTG_FS GPIO Configuration
  88              		.loc 1 78 5 view .LVU13
  83:USB_DEVICE/Target/usbd_conf.c ****     GPIO_InitStruct.Mode = GPIO_MODE_AF_PP;
  89              		.loc 1 83 5 view .LVU14
  83:USB_DEVICE/Target/usbd_conf.c ****     GPIO_InitStruct.Mode = GPIO_MODE_AF_PP;
  90              		.loc 1 83 25 is_stmt 0 view .LVU15
  91 0034 4FF4C053 		mov	r3, #6144
  92 0038 0393     		str	r3, [sp, #12]
  84:USB_DEVICE/Target/usbd_conf.c ****     GPIO_InitStruct.Pull = GPIO_NOPULL;
  93              		.loc 1 84 5 is_stmt 1 view .LVU16
  84:USB_DEVICE/Target/usbd_conf.c ****     GPIO_InitStruct.Pull = GPIO_NOPULL;
  94              		.loc 1 84 26 is_stmt 0 view .LVU17
  95 003a 0223     		movs	r3, #2
  96 003c 0493     		str	r3, [sp, #16]
  85:USB_DEVICE/Target/usbd_conf.c ****     GPIO_InitStruct.Speed = GPIO_SPEED_FREQ_VERY_HIGH;
  97              		.loc 1 85 5 is_stmt 1 view .LVU18
  86:USB_DEVICE/Target/usbd_conf.c ****     GPIO_InitStruct.Alternate = GPIO_AF10_OTG_FS;
  98              		.loc 1 86 5 view .LVU19
  86:USB_DEVICE/Target/usbd_conf.c ****     GPIO_InitStruct.Alternate = GPIO_AF10_OTG_FS;
  99              		.loc 1 86 27 is_stmt 0 view .LVU20
 100 003e 0323     		movs	r3, #3
 101 0040 0693     		str	r3, [sp, #24]
  87:USB_DEVICE/Target/usbd_conf.c ****     HAL_GPIO_Init(GPIOA, &GPIO_InitStruct);
 102              		.loc 1 87 5 is_stmt 1 view .LVU21
  87:USB_DEVICE/Target/usbd_conf.c ****     HAL_GPIO_Init(GPIOA, &GPIO_InitStruct);
 103              		.loc 1 87 31 is_stmt 0 view .LVU22
 104 0042 0A23     		movs	r3, #10
 105 0044 0793     		str	r3, [sp, #28]
  88:USB_DEVICE/Target/usbd_conf.c **** 
 106              		.loc 1 88 5 is_stmt 1 view .LVU23
 107 0046 03A9     		add	r1, sp, #12
 108 0048 0D48     		ldr	r0, .L5+4
 109              	.LVL3:
  88:USB_DEVICE/Target/usbd_conf.c **** 
 110              		.loc 1 88 5 is_stmt 0 view .LVU24
 111 004a FFF7FEFF 		bl	HAL_GPIO_Init
 112              	.LVL4:
ARM GAS  C:\Users\DAELT-~1\AppData\Local\Temp\ccxtwJwK.s 			page 5


  91:USB_DEVICE/Target/usbd_conf.c **** 
 113              		.loc 1 91 5 is_stmt 1 view .LVU25
  91:USB_DEVICE/Target/usbd_conf.c **** 
 114              		.loc 1 91 5 view .LVU26
 115 004e 636B     		ldr	r3, [r4, #52]
 116 0050 43F08003 		orr	r3, r3, #128
 117 0054 6363     		str	r3, [r4, #52]
  91:USB_DEVICE/Target/usbd_conf.c **** 
 118              		.loc 1 91 5 view .LVU27
 119              	.LBB3:
  91:USB_DEVICE/Target/usbd_conf.c **** 
 120              		.loc 1 91 5 view .LVU28
 121 0056 0295     		str	r5, [sp, #8]
  91:USB_DEVICE/Target/usbd_conf.c **** 
 122              		.loc 1 91 5 view .LVU29
 123 0058 636C     		ldr	r3, [r4, #68]
 124 005a 43F48043 		orr	r3, r3, #16384
 125 005e 6364     		str	r3, [r4, #68]
  91:USB_DEVICE/Target/usbd_conf.c **** 
 126              		.loc 1 91 5 view .LVU30
 127 0060 636C     		ldr	r3, [r4, #68]
 128 0062 03F48043 		and	r3, r3, #16384
 129 0066 0293     		str	r3, [sp, #8]
  91:USB_DEVICE/Target/usbd_conf.c **** 
 130              		.loc 1 91 5 view .LVU31
 131 0068 029B     		ldr	r3, [sp, #8]
 132              	.LBE3:
  91:USB_DEVICE/Target/usbd_conf.c **** 
 133              		.loc 1 91 5 view .LVU32
  91:USB_DEVICE/Target/usbd_conf.c **** 
 134              		.loc 1 91 5 view .LVU33
  94:USB_DEVICE/Target/usbd_conf.c ****     HAL_NVIC_EnableIRQ(OTG_FS_IRQn);
 135              		.loc 1 94 5 view .LVU34
 136 006a 2A46     		mov	r2, r5
 137 006c 2946     		mov	r1, r5
 138 006e 4320     		movs	r0, #67
 139 0070 FFF7FEFF 		bl	HAL_NVIC_SetPriority
 140              	.LVL5:
  95:USB_DEVICE/Target/usbd_conf.c ****   /* USER CODE BEGIN USB_OTG_FS_MspInit 1 */
 141              		.loc 1 95 5 view .LVU35
 142 0074 4320     		movs	r0, #67
 143 0076 FFF7FEFF 		bl	HAL_NVIC_EnableIRQ
 144              	.LVL6:
 145              		.loc 1 100 1 is_stmt 0 view .LVU36
 146 007a CDE7     		b	.L1
 147              	.L6:
 148              		.align	2
 149              	.L5:
 150 007c 00380240 		.word	1073887232
 151 0080 00000240 		.word	1073872896
 152              		.cfi_endproc
 153              	.LFE224:
 155              		.section	.text.HAL_PCD_MspDeInit,"ax",%progbits
 156              		.align	1
 157              		.global	HAL_PCD_MspDeInit
 158              		.syntax unified
 159              		.thumb
ARM GAS  C:\Users\DAELT-~1\AppData\Local\Temp\ccxtwJwK.s 			page 6


 160              		.thumb_func
 162              	HAL_PCD_MspDeInit:
 163              	.LVL7:
 164              	.LFB225:
 101:USB_DEVICE/Target/usbd_conf.c **** 
 102:USB_DEVICE/Target/usbd_conf.c **** void HAL_PCD_MspDeInit(PCD_HandleTypeDef* pcdHandle)
 103:USB_DEVICE/Target/usbd_conf.c **** {
 165              		.loc 1 103 1 is_stmt 1 view -0
 166              		.cfi_startproc
 167              		@ args = 0, pretend = 0, frame = 0
 168              		@ frame_needed = 0, uses_anonymous_args = 0
 169              		.loc 1 103 1 is_stmt 0 view .LVU38
 170 0000 08B5     		push	{r3, lr}
 171              	.LCFI4:
 172              		.cfi_def_cfa_offset 8
 173              		.cfi_offset 3, -8
 174              		.cfi_offset 14, -4
 104:USB_DEVICE/Target/usbd_conf.c ****   if(pcdHandle->Instance==USB_OTG_FS)
 175              		.loc 1 104 3 is_stmt 1 view .LVU39
 176              		.loc 1 104 15 is_stmt 0 view .LVU40
 177 0002 0368     		ldr	r3, [r0]
 178              		.loc 1 104 5 view .LVU41
 179 0004 B3F1A04F 		cmp	r3, #1342177280
 180 0008 00D0     		beq	.L10
 181              	.LVL8:
 182              	.L7:
 105:USB_DEVICE/Target/usbd_conf.c ****   {
 106:USB_DEVICE/Target/usbd_conf.c ****   /* USER CODE BEGIN USB_OTG_FS_MspDeInit 0 */
 107:USB_DEVICE/Target/usbd_conf.c **** 
 108:USB_DEVICE/Target/usbd_conf.c ****   /* USER CODE END USB_OTG_FS_MspDeInit 0 */
 109:USB_DEVICE/Target/usbd_conf.c ****     /* Peripheral clock disable */
 110:USB_DEVICE/Target/usbd_conf.c ****     __HAL_RCC_USB_OTG_FS_CLK_DISABLE();
 111:USB_DEVICE/Target/usbd_conf.c **** 
 112:USB_DEVICE/Target/usbd_conf.c ****     /**USB_OTG_FS GPIO Configuration
 113:USB_DEVICE/Target/usbd_conf.c ****     PA11     ------> USB_OTG_FS_DM
 114:USB_DEVICE/Target/usbd_conf.c ****     PA12     ------> USB_OTG_FS_DP
 115:USB_DEVICE/Target/usbd_conf.c ****     */
 116:USB_DEVICE/Target/usbd_conf.c ****     HAL_GPIO_DeInit(GPIOA, GPIO_PIN_11|GPIO_PIN_12);
 117:USB_DEVICE/Target/usbd_conf.c **** 
 118:USB_DEVICE/Target/usbd_conf.c ****     /* Peripheral interrupt Deinit*/
 119:USB_DEVICE/Target/usbd_conf.c ****     HAL_NVIC_DisableIRQ(OTG_FS_IRQn);
 120:USB_DEVICE/Target/usbd_conf.c **** 
 121:USB_DEVICE/Target/usbd_conf.c ****   /* USER CODE BEGIN USB_OTG_FS_MspDeInit 1 */
 122:USB_DEVICE/Target/usbd_conf.c **** 
 123:USB_DEVICE/Target/usbd_conf.c ****   /* USER CODE END USB_OTG_FS_MspDeInit 1 */
 124:USB_DEVICE/Target/usbd_conf.c ****   }
 125:USB_DEVICE/Target/usbd_conf.c **** }
 183              		.loc 1 125 1 view .LVU42
 184 000a 08BD     		pop	{r3, pc}
 185              	.LVL9:
 186              	.L10:
 110:USB_DEVICE/Target/usbd_conf.c **** 
 187              		.loc 1 110 5 is_stmt 1 view .LVU43
 188 000c 064A     		ldr	r2, .L11
 189 000e 536B     		ldr	r3, [r2, #52]
 190 0010 23F08003 		bic	r3, r3, #128
 191 0014 5363     		str	r3, [r2, #52]
ARM GAS  C:\Users\DAELT-~1\AppData\Local\Temp\ccxtwJwK.s 			page 7


 116:USB_DEVICE/Target/usbd_conf.c **** 
 192              		.loc 1 116 5 view .LVU44
 193 0016 4FF4C051 		mov	r1, #6144
 194 001a 0448     		ldr	r0, .L11+4
 195              	.LVL10:
 116:USB_DEVICE/Target/usbd_conf.c **** 
 196              		.loc 1 116 5 is_stmt 0 view .LVU45
 197 001c FFF7FEFF 		bl	HAL_GPIO_DeInit
 198              	.LVL11:
 119:USB_DEVICE/Target/usbd_conf.c **** 
 199              		.loc 1 119 5 is_stmt 1 view .LVU46
 200 0020 4320     		movs	r0, #67
 201 0022 FFF7FEFF 		bl	HAL_NVIC_DisableIRQ
 202              	.LVL12:
 203              		.loc 1 125 1 is_stmt 0 view .LVU47
 204 0026 F0E7     		b	.L7
 205              	.L12:
 206              		.align	2
 207              	.L11:
 208 0028 00380240 		.word	1073887232
 209 002c 00000240 		.word	1073872896
 210              		.cfi_endproc
 211              	.LFE225:
 213              		.section	.text.HAL_PCD_SetupStageCallback,"ax",%progbits
 214              		.align	1
 215              		.global	HAL_PCD_SetupStageCallback
 216              		.syntax unified
 217              		.thumb
 218              		.thumb_func
 220              	HAL_PCD_SetupStageCallback:
 221              	.LVL13:
 222              	.LFB226:
 126:USB_DEVICE/Target/usbd_conf.c **** 
 127:USB_DEVICE/Target/usbd_conf.c **** /**
 128:USB_DEVICE/Target/usbd_conf.c ****   * @brief  Setup stage callback
 129:USB_DEVICE/Target/usbd_conf.c ****   * @param  hpcd: PCD handle
 130:USB_DEVICE/Target/usbd_conf.c ****   * @retval None
 131:USB_DEVICE/Target/usbd_conf.c ****   */
 132:USB_DEVICE/Target/usbd_conf.c **** #if (USE_HAL_PCD_REGISTER_CALLBACKS == 1U)
 133:USB_DEVICE/Target/usbd_conf.c **** static void PCD_SetupStageCallback(PCD_HandleTypeDef *hpcd)
 134:USB_DEVICE/Target/usbd_conf.c **** #else
 135:USB_DEVICE/Target/usbd_conf.c **** void HAL_PCD_SetupStageCallback(PCD_HandleTypeDef *hpcd)
 136:USB_DEVICE/Target/usbd_conf.c **** #endif /* USE_HAL_PCD_REGISTER_CALLBACKS */
 137:USB_DEVICE/Target/usbd_conf.c **** {
 223              		.loc 1 137 1 is_stmt 1 view -0
 224              		.cfi_startproc
 225              		@ args = 0, pretend = 0, frame = 0
 226              		@ frame_needed = 0, uses_anonymous_args = 0
 227              		.loc 1 137 1 is_stmt 0 view .LVU49
 228 0000 08B5     		push	{r3, lr}
 229              	.LCFI5:
 230              		.cfi_def_cfa_offset 8
 231              		.cfi_offset 3, -8
 232              		.cfi_offset 14, -4
 138:USB_DEVICE/Target/usbd_conf.c ****   USBD_LL_SetupStage((USBD_HandleTypeDef*)hpcd->pData, (uint8_t *)hpcd->Setup);
 233              		.loc 1 138 3 is_stmt 1 view .LVU50
 234 0002 00F29C41 		addw	r1, r0, #1180
ARM GAS  C:\Users\DAELT-~1\AppData\Local\Temp\ccxtwJwK.s 			page 8


 235 0006 D0F8E004 		ldr	r0, [r0, #1248]
 236              	.LVL14:
 237              		.loc 1 138 3 is_stmt 0 view .LVU51
 238 000a FFF7FEFF 		bl	USBD_LL_SetupStage
 239              	.LVL15:
 139:USB_DEVICE/Target/usbd_conf.c **** }
 240              		.loc 1 139 1 view .LVU52
 241 000e 08BD     		pop	{r3, pc}
 242              		.cfi_endproc
 243              	.LFE226:
 245              		.section	.text.HAL_PCD_DataOutStageCallback,"ax",%progbits
 246              		.align	1
 247              		.global	HAL_PCD_DataOutStageCallback
 248              		.syntax unified
 249              		.thumb
 250              		.thumb_func
 252              	HAL_PCD_DataOutStageCallback:
 253              	.LVL16:
 254              	.LFB227:
 140:USB_DEVICE/Target/usbd_conf.c **** 
 141:USB_DEVICE/Target/usbd_conf.c **** /**
 142:USB_DEVICE/Target/usbd_conf.c ****   * @brief  Data Out stage callback.
 143:USB_DEVICE/Target/usbd_conf.c ****   * @param  hpcd: PCD handle
 144:USB_DEVICE/Target/usbd_conf.c ****   * @param  epnum: Endpoint number
 145:USB_DEVICE/Target/usbd_conf.c ****   * @retval None
 146:USB_DEVICE/Target/usbd_conf.c ****   */
 147:USB_DEVICE/Target/usbd_conf.c **** #if (USE_HAL_PCD_REGISTER_CALLBACKS == 1U)
 148:USB_DEVICE/Target/usbd_conf.c **** static void PCD_DataOutStageCallback(PCD_HandleTypeDef *hpcd, uint8_t epnum)
 149:USB_DEVICE/Target/usbd_conf.c **** #else
 150:USB_DEVICE/Target/usbd_conf.c **** void HAL_PCD_DataOutStageCallback(PCD_HandleTypeDef *hpcd, uint8_t epnum)
 151:USB_DEVICE/Target/usbd_conf.c **** #endif /* USE_HAL_PCD_REGISTER_CALLBACKS */
 152:USB_DEVICE/Target/usbd_conf.c **** {
 255              		.loc 1 152 1 is_stmt 1 view -0
 256              		.cfi_startproc
 257              		@ args = 0, pretend = 0, frame = 0
 258              		@ frame_needed = 0, uses_anonymous_args = 0
 259              		.loc 1 152 1 is_stmt 0 view .LVU54
 260 0000 08B5     		push	{r3, lr}
 261              	.LCFI6:
 262              		.cfi_def_cfa_offset 8
 263              		.cfi_offset 3, -8
 264              		.cfi_offset 14, -4
 153:USB_DEVICE/Target/usbd_conf.c ****   USBD_LL_DataOutStage((USBD_HandleTypeDef*)hpcd->pData, epnum, hpcd->OUT_ep[epnum].xfer_buff);
 265              		.loc 1 153 3 is_stmt 1 view .LVU55
 266 0002 01EBC103 		add	r3, r1, r1, lsl #3
 267 0006 00EB8303 		add	r3, r0, r3, lsl #2
 268 000a D3F86022 		ldr	r2, [r3, #608]
 269 000e D0F8E004 		ldr	r0, [r0, #1248]
 270              	.LVL17:
 271              		.loc 1 153 3 is_stmt 0 view .LVU56
 272 0012 FFF7FEFF 		bl	USBD_LL_DataOutStage
 273              	.LVL18:
 154:USB_DEVICE/Target/usbd_conf.c **** }
 274              		.loc 1 154 1 view .LVU57
 275 0016 08BD     		pop	{r3, pc}
 276              		.cfi_endproc
 277              	.LFE227:
ARM GAS  C:\Users\DAELT-~1\AppData\Local\Temp\ccxtwJwK.s 			page 9


 279              		.section	.text.HAL_PCD_DataInStageCallback,"ax",%progbits
 280              		.align	1
 281              		.global	HAL_PCD_DataInStageCallback
 282              		.syntax unified
 283              		.thumb
 284              		.thumb_func
 286              	HAL_PCD_DataInStageCallback:
 287              	.LVL19:
 288              	.LFB228:
 155:USB_DEVICE/Target/usbd_conf.c **** 
 156:USB_DEVICE/Target/usbd_conf.c **** /**
 157:USB_DEVICE/Target/usbd_conf.c ****   * @brief  Data In stage callback.
 158:USB_DEVICE/Target/usbd_conf.c ****   * @param  hpcd: PCD handle
 159:USB_DEVICE/Target/usbd_conf.c ****   * @param  epnum: Endpoint number
 160:USB_DEVICE/Target/usbd_conf.c ****   * @retval None
 161:USB_DEVICE/Target/usbd_conf.c ****   */
 162:USB_DEVICE/Target/usbd_conf.c **** #if (USE_HAL_PCD_REGISTER_CALLBACKS == 1U)
 163:USB_DEVICE/Target/usbd_conf.c **** static void PCD_DataInStageCallback(PCD_HandleTypeDef *hpcd, uint8_t epnum)
 164:USB_DEVICE/Target/usbd_conf.c **** #else
 165:USB_DEVICE/Target/usbd_conf.c **** void HAL_PCD_DataInStageCallback(PCD_HandleTypeDef *hpcd, uint8_t epnum)
 166:USB_DEVICE/Target/usbd_conf.c **** #endif /* USE_HAL_PCD_REGISTER_CALLBACKS */
 167:USB_DEVICE/Target/usbd_conf.c **** {
 289              		.loc 1 167 1 is_stmt 1 view -0
 290              		.cfi_startproc
 291              		@ args = 0, pretend = 0, frame = 0
 292              		@ frame_needed = 0, uses_anonymous_args = 0
 293              		.loc 1 167 1 is_stmt 0 view .LVU59
 294 0000 08B5     		push	{r3, lr}
 295              	.LCFI7:
 296              		.cfi_def_cfa_offset 8
 297              		.cfi_offset 3, -8
 298              		.cfi_offset 14, -4
 168:USB_DEVICE/Target/usbd_conf.c ****   USBD_LL_DataInStage((USBD_HandleTypeDef*)hpcd->pData, epnum, hpcd->IN_ep[epnum].xfer_buff);
 299              		.loc 1 168 3 is_stmt 1 view .LVU60
 300 0002 01EBC103 		add	r3, r1, r1, lsl #3
 301 0006 00EB8303 		add	r3, r0, r3, lsl #2
 302 000a 1A6A     		ldr	r2, [r3, #32]
 303 000c D0F8E004 		ldr	r0, [r0, #1248]
 304              	.LVL20:
 305              		.loc 1 168 3 is_stmt 0 view .LVU61
 306 0010 FFF7FEFF 		bl	USBD_LL_DataInStage
 307              	.LVL21:
 169:USB_DEVICE/Target/usbd_conf.c **** }
 308              		.loc 1 169 1 view .LVU62
 309 0014 08BD     		pop	{r3, pc}
 310              		.cfi_endproc
 311              	.LFE228:
 313              		.section	.text.HAL_PCD_SOFCallback,"ax",%progbits
 314              		.align	1
 315              		.global	HAL_PCD_SOFCallback
 316              		.syntax unified
 317              		.thumb
 318              		.thumb_func
 320              	HAL_PCD_SOFCallback:
 321              	.LVL22:
 322              	.LFB229:
 170:USB_DEVICE/Target/usbd_conf.c **** 
ARM GAS  C:\Users\DAELT-~1\AppData\Local\Temp\ccxtwJwK.s 			page 10


 171:USB_DEVICE/Target/usbd_conf.c **** /**
 172:USB_DEVICE/Target/usbd_conf.c ****   * @brief  SOF callback.
 173:USB_DEVICE/Target/usbd_conf.c ****   * @param  hpcd: PCD handle
 174:USB_DEVICE/Target/usbd_conf.c ****   * @retval None
 175:USB_DEVICE/Target/usbd_conf.c ****   */
 176:USB_DEVICE/Target/usbd_conf.c **** #if (USE_HAL_PCD_REGISTER_CALLBACKS == 1U)
 177:USB_DEVICE/Target/usbd_conf.c **** static void PCD_SOFCallback(PCD_HandleTypeDef *hpcd)
 178:USB_DEVICE/Target/usbd_conf.c **** #else
 179:USB_DEVICE/Target/usbd_conf.c **** void HAL_PCD_SOFCallback(PCD_HandleTypeDef *hpcd)
 180:USB_DEVICE/Target/usbd_conf.c **** #endif /* USE_HAL_PCD_REGISTER_CALLBACKS */
 181:USB_DEVICE/Target/usbd_conf.c **** {
 323              		.loc 1 181 1 is_stmt 1 view -0
 324              		.cfi_startproc
 325              		@ args = 0, pretend = 0, frame = 0
 326              		@ frame_needed = 0, uses_anonymous_args = 0
 327              		.loc 1 181 1 is_stmt 0 view .LVU64
 328 0000 08B5     		push	{r3, lr}
 329              	.LCFI8:
 330              		.cfi_def_cfa_offset 8
 331              		.cfi_offset 3, -8
 332              		.cfi_offset 14, -4
 182:USB_DEVICE/Target/usbd_conf.c ****   USBD_LL_SOF((USBD_HandleTypeDef*)hpcd->pData);
 333              		.loc 1 182 3 is_stmt 1 view .LVU65
 334 0002 D0F8E004 		ldr	r0, [r0, #1248]
 335              	.LVL23:
 336              		.loc 1 182 3 is_stmt 0 view .LVU66
 337 0006 FFF7FEFF 		bl	USBD_LL_SOF
 338              	.LVL24:
 183:USB_DEVICE/Target/usbd_conf.c **** }
 339              		.loc 1 183 1 view .LVU67
 340 000a 08BD     		pop	{r3, pc}
 341              		.cfi_endproc
 342              	.LFE229:
 344              		.section	.text.HAL_PCD_ResetCallback,"ax",%progbits
 345              		.align	1
 346              		.global	HAL_PCD_ResetCallback
 347              		.syntax unified
 348              		.thumb
 349              		.thumb_func
 351              	HAL_PCD_ResetCallback:
 352              	.LVL25:
 353              	.LFB230:
 184:USB_DEVICE/Target/usbd_conf.c **** 
 185:USB_DEVICE/Target/usbd_conf.c **** /**
 186:USB_DEVICE/Target/usbd_conf.c ****   * @brief  Reset callback.
 187:USB_DEVICE/Target/usbd_conf.c ****   * @param  hpcd: PCD handle
 188:USB_DEVICE/Target/usbd_conf.c ****   * @retval None
 189:USB_DEVICE/Target/usbd_conf.c ****   */
 190:USB_DEVICE/Target/usbd_conf.c **** #if (USE_HAL_PCD_REGISTER_CALLBACKS == 1U)
 191:USB_DEVICE/Target/usbd_conf.c **** static void PCD_ResetCallback(PCD_HandleTypeDef *hpcd)
 192:USB_DEVICE/Target/usbd_conf.c **** #else
 193:USB_DEVICE/Target/usbd_conf.c **** void HAL_PCD_ResetCallback(PCD_HandleTypeDef *hpcd)
 194:USB_DEVICE/Target/usbd_conf.c **** #endif /* USE_HAL_PCD_REGISTER_CALLBACKS */
 195:USB_DEVICE/Target/usbd_conf.c **** {
 354              		.loc 1 195 1 is_stmt 1 view -0
 355              		.cfi_startproc
 356              		@ args = 0, pretend = 0, frame = 0
ARM GAS  C:\Users\DAELT-~1\AppData\Local\Temp\ccxtwJwK.s 			page 11


 357              		@ frame_needed = 0, uses_anonymous_args = 0
 358              		.loc 1 195 1 is_stmt 0 view .LVU69
 359 0000 10B5     		push	{r4, lr}
 360              	.LCFI9:
 361              		.cfi_def_cfa_offset 8
 362              		.cfi_offset 4, -8
 363              		.cfi_offset 14, -4
 364 0002 0446     		mov	r4, r0
 196:USB_DEVICE/Target/usbd_conf.c ****    USBD_SpeedTypeDef speed = USBD_SPEED_FULL;
 365              		.loc 1 196 4 is_stmt 1 view .LVU70
 366              	.LVL26:
 197:USB_DEVICE/Target/usbd_conf.c **** 
 198:USB_DEVICE/Target/usbd_conf.c ****   if ( hpcd->Init.speed != PCD_SPEED_FULL)
 367              		.loc 1 198 3 view .LVU71
 368              		.loc 1 198 18 is_stmt 0 view .LVU72
 369 0004 C379     		ldrb	r3, [r0, #7]	@ zero_extendqisi2
 370              		.loc 1 198 6 view .LVU73
 371 0006 022B     		cmp	r3, #2
 372 0008 09D1     		bne	.L24
 373              	.LVL27:
 374              	.L22:
 199:USB_DEVICE/Target/usbd_conf.c ****   {
 200:USB_DEVICE/Target/usbd_conf.c ****     Error_Handler();
 201:USB_DEVICE/Target/usbd_conf.c ****   }
 202:USB_DEVICE/Target/usbd_conf.c ****     /* Set Speed. */
 203:USB_DEVICE/Target/usbd_conf.c ****   USBD_LL_SetSpeed((USBD_HandleTypeDef*)hpcd->pData, speed);
 375              		.loc 1 203 3 is_stmt 1 view .LVU74
 376 000a 0121     		movs	r1, #1
 377 000c D4F8E004 		ldr	r0, [r4, #1248]
 378 0010 FFF7FEFF 		bl	USBD_LL_SetSpeed
 379              	.LVL28:
 204:USB_DEVICE/Target/usbd_conf.c **** 
 205:USB_DEVICE/Target/usbd_conf.c ****   /* Reset Device. */
 206:USB_DEVICE/Target/usbd_conf.c ****   USBD_LL_Reset((USBD_HandleTypeDef*)hpcd->pData);
 380              		.loc 1 206 3 view .LVU75
 381 0014 D4F8E004 		ldr	r0, [r4, #1248]
 382 0018 FFF7FEFF 		bl	USBD_LL_Reset
 383              	.LVL29:
 207:USB_DEVICE/Target/usbd_conf.c **** }
 384              		.loc 1 207 1 is_stmt 0 view .LVU76
 385 001c 10BD     		pop	{r4, pc}
 386              	.LVL30:
 387              	.L24:
 200:USB_DEVICE/Target/usbd_conf.c ****   }
 388              		.loc 1 200 5 is_stmt 1 view .LVU77
 389 001e FFF7FEFF 		bl	Error_Handler
 390              	.LVL31:
 200:USB_DEVICE/Target/usbd_conf.c ****   }
 391              		.loc 1 200 5 is_stmt 0 view .LVU78
 392 0022 F2E7     		b	.L22
 393              		.cfi_endproc
 394              	.LFE230:
 396              		.section	.text.HAL_PCD_SuspendCallback,"ax",%progbits
 397              		.align	1
 398              		.global	HAL_PCD_SuspendCallback
 399              		.syntax unified
 400              		.thumb
ARM GAS  C:\Users\DAELT-~1\AppData\Local\Temp\ccxtwJwK.s 			page 12


 401              		.thumb_func
 403              	HAL_PCD_SuspendCallback:
 404              	.LVL32:
 405              	.LFB231:
 208:USB_DEVICE/Target/usbd_conf.c **** 
 209:USB_DEVICE/Target/usbd_conf.c **** /**
 210:USB_DEVICE/Target/usbd_conf.c ****   * @brief  Suspend callback.
 211:USB_DEVICE/Target/usbd_conf.c ****   * When Low power mode is enabled the debug cannot be used (IAR, Keil doesn't support it)
 212:USB_DEVICE/Target/usbd_conf.c ****   * @param  hpcd: PCD handle
 213:USB_DEVICE/Target/usbd_conf.c ****   * @retval None
 214:USB_DEVICE/Target/usbd_conf.c ****   */
 215:USB_DEVICE/Target/usbd_conf.c **** #if (USE_HAL_PCD_REGISTER_CALLBACKS == 1U)
 216:USB_DEVICE/Target/usbd_conf.c **** static void PCD_SuspendCallback(PCD_HandleTypeDef *hpcd)
 217:USB_DEVICE/Target/usbd_conf.c **** #else
 218:USB_DEVICE/Target/usbd_conf.c **** void HAL_PCD_SuspendCallback(PCD_HandleTypeDef *hpcd)
 219:USB_DEVICE/Target/usbd_conf.c **** #endif /* USE_HAL_PCD_REGISTER_CALLBACKS */
 220:USB_DEVICE/Target/usbd_conf.c **** {
 406              		.loc 1 220 1 is_stmt 1 view -0
 407              		.cfi_startproc
 408              		@ args = 0, pretend = 0, frame = 0
 409              		@ frame_needed = 0, uses_anonymous_args = 0
 410              		.loc 1 220 1 is_stmt 0 view .LVU80
 411 0000 10B5     		push	{r4, lr}
 412              	.LCFI10:
 413              		.cfi_def_cfa_offset 8
 414              		.cfi_offset 4, -8
 415              		.cfi_offset 14, -4
 416 0002 0446     		mov	r4, r0
 221:USB_DEVICE/Target/usbd_conf.c ****   /* Inform USB library that core enters in suspend Mode. */
 222:USB_DEVICE/Target/usbd_conf.c ****   USBD_LL_Suspend((USBD_HandleTypeDef*)hpcd->pData);
 417              		.loc 1 222 3 is_stmt 1 view .LVU81
 418 0004 D0F8E004 		ldr	r0, [r0, #1248]
 419              	.LVL33:
 420              		.loc 1 222 3 is_stmt 0 view .LVU82
 421 0008 FFF7FEFF 		bl	USBD_LL_Suspend
 422              	.LVL34:
 223:USB_DEVICE/Target/usbd_conf.c ****   __HAL_PCD_GATE_PHYCLOCK(hpcd);
 423              		.loc 1 223 3 is_stmt 1 view .LVU83
 424 000c 2268     		ldr	r2, [r4]
 425 000e D2F8003E 		ldr	r3, [r2, #3584]
 426 0012 43F00103 		orr	r3, r3, #1
 427 0016 C2F8003E 		str	r3, [r2, #3584]
 224:USB_DEVICE/Target/usbd_conf.c ****   /* Enter in STOP mode. */
 225:USB_DEVICE/Target/usbd_conf.c ****   /* USER CODE BEGIN 2 */
 226:USB_DEVICE/Target/usbd_conf.c ****   if (hpcd->Init.low_power_enable)
 428              		.loc 1 226 3 view .LVU84
 429              		.loc 1 226 17 is_stmt 0 view .LVU85
 430 001a E37A     		ldrb	r3, [r4, #11]	@ zero_extendqisi2
 431              		.loc 1 226 6 view .LVU86
 432 001c 23B1     		cbz	r3, .L25
 227:USB_DEVICE/Target/usbd_conf.c ****   {
 228:USB_DEVICE/Target/usbd_conf.c ****     /* Set SLEEPDEEP bit and SleepOnExit of Cortex System Control Register. */
 229:USB_DEVICE/Target/usbd_conf.c ****     SCB->SCR |= (uint32_t)((uint32_t)(SCB_SCR_SLEEPDEEP_Msk | SCB_SCR_SLEEPONEXIT_Msk));
 433              		.loc 1 229 5 is_stmt 1 view .LVU87
 434              		.loc 1 229 8 is_stmt 0 view .LVU88
 435 001e 034A     		ldr	r2, .L28
 436 0020 1369     		ldr	r3, [r2, #16]
ARM GAS  C:\Users\DAELT-~1\AppData\Local\Temp\ccxtwJwK.s 			page 13


 437              		.loc 1 229 14 view .LVU89
 438 0022 43F00603 		orr	r3, r3, #6
 439 0026 1361     		str	r3, [r2, #16]
 440              	.L25:
 230:USB_DEVICE/Target/usbd_conf.c ****   }
 231:USB_DEVICE/Target/usbd_conf.c ****   /* USER CODE END 2 */
 232:USB_DEVICE/Target/usbd_conf.c **** }
 441              		.loc 1 232 1 view .LVU90
 442 0028 10BD     		pop	{r4, pc}
 443              	.LVL35:
 444              	.L29:
 445              		.loc 1 232 1 view .LVU91
 446 002a 00BF     		.align	2
 447              	.L28:
 448 002c 00ED00E0 		.word	-536810240
 449              		.cfi_endproc
 450              	.LFE231:
 452              		.section	.text.HAL_PCD_ResumeCallback,"ax",%progbits
 453              		.align	1
 454              		.global	HAL_PCD_ResumeCallback
 455              		.syntax unified
 456              		.thumb
 457              		.thumb_func
 459              	HAL_PCD_ResumeCallback:
 460              	.LVL36:
 461              	.LFB232:
 233:USB_DEVICE/Target/usbd_conf.c **** 
 234:USB_DEVICE/Target/usbd_conf.c **** /**
 235:USB_DEVICE/Target/usbd_conf.c ****   * @brief  Resume callback.
 236:USB_DEVICE/Target/usbd_conf.c ****   * When Low power mode is enabled the debug cannot be used (IAR, Keil doesn't support it)
 237:USB_DEVICE/Target/usbd_conf.c ****   * @param  hpcd: PCD handle
 238:USB_DEVICE/Target/usbd_conf.c ****   * @retval None
 239:USB_DEVICE/Target/usbd_conf.c ****   */
 240:USB_DEVICE/Target/usbd_conf.c **** #if (USE_HAL_PCD_REGISTER_CALLBACKS == 1U)
 241:USB_DEVICE/Target/usbd_conf.c **** static void PCD_ResumeCallback(PCD_HandleTypeDef *hpcd)
 242:USB_DEVICE/Target/usbd_conf.c **** #else
 243:USB_DEVICE/Target/usbd_conf.c **** void HAL_PCD_ResumeCallback(PCD_HandleTypeDef *hpcd)
 244:USB_DEVICE/Target/usbd_conf.c **** #endif /* USE_HAL_PCD_REGISTER_CALLBACKS */
 245:USB_DEVICE/Target/usbd_conf.c **** {
 462              		.loc 1 245 1 is_stmt 1 view -0
 463              		.cfi_startproc
 464              		@ args = 0, pretend = 0, frame = 0
 465              		@ frame_needed = 0, uses_anonymous_args = 0
 466              		.loc 1 245 1 is_stmt 0 view .LVU93
 467 0000 08B5     		push	{r3, lr}
 468              	.LCFI11:
 469              		.cfi_def_cfa_offset 8
 470              		.cfi_offset 3, -8
 471              		.cfi_offset 14, -4
 246:USB_DEVICE/Target/usbd_conf.c ****   /* USER CODE BEGIN 3 */
 247:USB_DEVICE/Target/usbd_conf.c **** 
 248:USB_DEVICE/Target/usbd_conf.c ****   /* USER CODE END 3 */
 249:USB_DEVICE/Target/usbd_conf.c ****   USBD_LL_Resume((USBD_HandleTypeDef*)hpcd->pData);
 472              		.loc 1 249 3 is_stmt 1 view .LVU94
 473 0002 D0F8E004 		ldr	r0, [r0, #1248]
 474              	.LVL37:
 475              		.loc 1 249 3 is_stmt 0 view .LVU95
ARM GAS  C:\Users\DAELT-~1\AppData\Local\Temp\ccxtwJwK.s 			page 14


 476 0006 FFF7FEFF 		bl	USBD_LL_Resume
 477              	.LVL38:
 250:USB_DEVICE/Target/usbd_conf.c **** }
 478              		.loc 1 250 1 view .LVU96
 479 000a 08BD     		pop	{r3, pc}
 480              		.cfi_endproc
 481              	.LFE232:
 483              		.section	.text.HAL_PCD_ISOOUTIncompleteCallback,"ax",%progbits
 484              		.align	1
 485              		.global	HAL_PCD_ISOOUTIncompleteCallback
 486              		.syntax unified
 487              		.thumb
 488              		.thumb_func
 490              	HAL_PCD_ISOOUTIncompleteCallback:
 491              	.LVL39:
 492              	.LFB233:
 251:USB_DEVICE/Target/usbd_conf.c **** 
 252:USB_DEVICE/Target/usbd_conf.c **** /**
 253:USB_DEVICE/Target/usbd_conf.c ****   * @brief  ISOOUTIncomplete callback.
 254:USB_DEVICE/Target/usbd_conf.c ****   * @param  hpcd: PCD handle
 255:USB_DEVICE/Target/usbd_conf.c ****   * @param  epnum: Endpoint number
 256:USB_DEVICE/Target/usbd_conf.c ****   * @retval None
 257:USB_DEVICE/Target/usbd_conf.c ****   */
 258:USB_DEVICE/Target/usbd_conf.c **** #if (USE_HAL_PCD_REGISTER_CALLBACKS == 1U)
 259:USB_DEVICE/Target/usbd_conf.c **** static void PCD_ISOOUTIncompleteCallback(PCD_HandleTypeDef *hpcd, uint8_t epnum)
 260:USB_DEVICE/Target/usbd_conf.c **** #else
 261:USB_DEVICE/Target/usbd_conf.c **** void HAL_PCD_ISOOUTIncompleteCallback(PCD_HandleTypeDef *hpcd, uint8_t epnum)
 262:USB_DEVICE/Target/usbd_conf.c **** #endif /* USE_HAL_PCD_REGISTER_CALLBACKS */
 263:USB_DEVICE/Target/usbd_conf.c **** {
 493              		.loc 1 263 1 is_stmt 1 view -0
 494              		.cfi_startproc
 495              		@ args = 0, pretend = 0, frame = 0
 496              		@ frame_needed = 0, uses_anonymous_args = 0
 497              		.loc 1 263 1 is_stmt 0 view .LVU98
 498 0000 08B5     		push	{r3, lr}
 499              	.LCFI12:
 500              		.cfi_def_cfa_offset 8
 501              		.cfi_offset 3, -8
 502              		.cfi_offset 14, -4
 264:USB_DEVICE/Target/usbd_conf.c ****   USBD_LL_IsoOUTIncomplete((USBD_HandleTypeDef*)hpcd->pData, epnum);
 503              		.loc 1 264 3 is_stmt 1 view .LVU99
 504 0002 D0F8E004 		ldr	r0, [r0, #1248]
 505              	.LVL40:
 506              		.loc 1 264 3 is_stmt 0 view .LVU100
 507 0006 FFF7FEFF 		bl	USBD_LL_IsoOUTIncomplete
 508              	.LVL41:
 265:USB_DEVICE/Target/usbd_conf.c **** }
 509              		.loc 1 265 1 view .LVU101
 510 000a 08BD     		pop	{r3, pc}
 511              		.cfi_endproc
 512              	.LFE233:
 514              		.section	.text.HAL_PCD_ISOINIncompleteCallback,"ax",%progbits
 515              		.align	1
 516              		.global	HAL_PCD_ISOINIncompleteCallback
 517              		.syntax unified
 518              		.thumb
 519              		.thumb_func
ARM GAS  C:\Users\DAELT-~1\AppData\Local\Temp\ccxtwJwK.s 			page 15


 521              	HAL_PCD_ISOINIncompleteCallback:
 522              	.LVL42:
 523              	.LFB234:
 266:USB_DEVICE/Target/usbd_conf.c **** 
 267:USB_DEVICE/Target/usbd_conf.c **** /**
 268:USB_DEVICE/Target/usbd_conf.c ****   * @brief  ISOINIncomplete callback.
 269:USB_DEVICE/Target/usbd_conf.c ****   * @param  hpcd: PCD handle
 270:USB_DEVICE/Target/usbd_conf.c ****   * @param  epnum: Endpoint number
 271:USB_DEVICE/Target/usbd_conf.c ****   * @retval None
 272:USB_DEVICE/Target/usbd_conf.c ****   */
 273:USB_DEVICE/Target/usbd_conf.c **** #if (USE_HAL_PCD_REGISTER_CALLBACKS == 1U)
 274:USB_DEVICE/Target/usbd_conf.c **** static void PCD_ISOINIncompleteCallback(PCD_HandleTypeDef *hpcd, uint8_t epnum)
 275:USB_DEVICE/Target/usbd_conf.c **** #else
 276:USB_DEVICE/Target/usbd_conf.c **** void HAL_PCD_ISOINIncompleteCallback(PCD_HandleTypeDef *hpcd, uint8_t epnum)
 277:USB_DEVICE/Target/usbd_conf.c **** #endif /* USE_HAL_PCD_REGISTER_CALLBACKS */
 278:USB_DEVICE/Target/usbd_conf.c **** {
 524              		.loc 1 278 1 is_stmt 1 view -0
 525              		.cfi_startproc
 526              		@ args = 0, pretend = 0, frame = 0
 527              		@ frame_needed = 0, uses_anonymous_args = 0
 528              		.loc 1 278 1 is_stmt 0 view .LVU103
 529 0000 08B5     		push	{r3, lr}
 530              	.LCFI13:
 531              		.cfi_def_cfa_offset 8
 532              		.cfi_offset 3, -8
 533              		.cfi_offset 14, -4
 279:USB_DEVICE/Target/usbd_conf.c ****   USBD_LL_IsoINIncomplete((USBD_HandleTypeDef*)hpcd->pData, epnum);
 534              		.loc 1 279 3 is_stmt 1 view .LVU104
 535 0002 D0F8E004 		ldr	r0, [r0, #1248]
 536              	.LVL43:
 537              		.loc 1 279 3 is_stmt 0 view .LVU105
 538 0006 FFF7FEFF 		bl	USBD_LL_IsoINIncomplete
 539              	.LVL44:
 280:USB_DEVICE/Target/usbd_conf.c **** }
 540              		.loc 1 280 1 view .LVU106
 541 000a 08BD     		pop	{r3, pc}
 542              		.cfi_endproc
 543              	.LFE234:
 545              		.section	.text.HAL_PCD_ConnectCallback,"ax",%progbits
 546              		.align	1
 547              		.global	HAL_PCD_ConnectCallback
 548              		.syntax unified
 549              		.thumb
 550              		.thumb_func
 552              	HAL_PCD_ConnectCallback:
 553              	.LVL45:
 554              	.LFB235:
 281:USB_DEVICE/Target/usbd_conf.c **** 
 282:USB_DEVICE/Target/usbd_conf.c **** /**
 283:USB_DEVICE/Target/usbd_conf.c ****   * @brief  Connect callback.
 284:USB_DEVICE/Target/usbd_conf.c ****   * @param  hpcd: PCD handle
 285:USB_DEVICE/Target/usbd_conf.c ****   * @retval None
 286:USB_DEVICE/Target/usbd_conf.c ****   */
 287:USB_DEVICE/Target/usbd_conf.c **** #if (USE_HAL_PCD_REGISTER_CALLBACKS == 1U)
 288:USB_DEVICE/Target/usbd_conf.c **** static void PCD_ConnectCallback(PCD_HandleTypeDef *hpcd)
 289:USB_DEVICE/Target/usbd_conf.c **** #else
 290:USB_DEVICE/Target/usbd_conf.c **** void HAL_PCD_ConnectCallback(PCD_HandleTypeDef *hpcd)
ARM GAS  C:\Users\DAELT-~1\AppData\Local\Temp\ccxtwJwK.s 			page 16


 291:USB_DEVICE/Target/usbd_conf.c **** #endif /* USE_HAL_PCD_REGISTER_CALLBACKS */
 292:USB_DEVICE/Target/usbd_conf.c **** {
 555              		.loc 1 292 1 is_stmt 1 view -0
 556              		.cfi_startproc
 557              		@ args = 0, pretend = 0, frame = 0
 558              		@ frame_needed = 0, uses_anonymous_args = 0
 559              		.loc 1 292 1 is_stmt 0 view .LVU108
 560 0000 08B5     		push	{r3, lr}
 561              	.LCFI14:
 562              		.cfi_def_cfa_offset 8
 563              		.cfi_offset 3, -8
 564              		.cfi_offset 14, -4
 293:USB_DEVICE/Target/usbd_conf.c ****   USBD_LL_DevConnected((USBD_HandleTypeDef*)hpcd->pData);
 565              		.loc 1 293 3 is_stmt 1 view .LVU109
 566 0002 D0F8E004 		ldr	r0, [r0, #1248]
 567              	.LVL46:
 568              		.loc 1 293 3 is_stmt 0 view .LVU110
 569 0006 FFF7FEFF 		bl	USBD_LL_DevConnected
 570              	.LVL47:
 294:USB_DEVICE/Target/usbd_conf.c **** }
 571              		.loc 1 294 1 view .LVU111
 572 000a 08BD     		pop	{r3, pc}
 573              		.cfi_endproc
 574              	.LFE235:
 576              		.section	.text.HAL_PCD_DisconnectCallback,"ax",%progbits
 577              		.align	1
 578              		.global	HAL_PCD_DisconnectCallback
 579              		.syntax unified
 580              		.thumb
 581              		.thumb_func
 583              	HAL_PCD_DisconnectCallback:
 584              	.LVL48:
 585              	.LFB236:
 295:USB_DEVICE/Target/usbd_conf.c **** 
 296:USB_DEVICE/Target/usbd_conf.c **** /**
 297:USB_DEVICE/Target/usbd_conf.c ****   * @brief  Disconnect callback.
 298:USB_DEVICE/Target/usbd_conf.c ****   * @param  hpcd: PCD handle
 299:USB_DEVICE/Target/usbd_conf.c ****   * @retval None
 300:USB_DEVICE/Target/usbd_conf.c ****   */
 301:USB_DEVICE/Target/usbd_conf.c **** #if (USE_HAL_PCD_REGISTER_CALLBACKS == 1U)
 302:USB_DEVICE/Target/usbd_conf.c **** static void PCD_DisconnectCallback(PCD_HandleTypeDef *hpcd)
 303:USB_DEVICE/Target/usbd_conf.c **** #else
 304:USB_DEVICE/Target/usbd_conf.c **** void HAL_PCD_DisconnectCallback(PCD_HandleTypeDef *hpcd)
 305:USB_DEVICE/Target/usbd_conf.c **** #endif /* USE_HAL_PCD_REGISTER_CALLBACKS */
 306:USB_DEVICE/Target/usbd_conf.c **** {
 586              		.loc 1 306 1 is_stmt 1 view -0
 587              		.cfi_startproc
 588              		@ args = 0, pretend = 0, frame = 0
 589              		@ frame_needed = 0, uses_anonymous_args = 0
 590              		.loc 1 306 1 is_stmt 0 view .LVU113
 591 0000 08B5     		push	{r3, lr}
 592              	.LCFI15:
 593              		.cfi_def_cfa_offset 8
 594              		.cfi_offset 3, -8
 595              		.cfi_offset 14, -4
 307:USB_DEVICE/Target/usbd_conf.c ****   USBD_LL_DevDisconnected((USBD_HandleTypeDef*)hpcd->pData);
 596              		.loc 1 307 3 is_stmt 1 view .LVU114
ARM GAS  C:\Users\DAELT-~1\AppData\Local\Temp\ccxtwJwK.s 			page 17


 597 0002 D0F8E004 		ldr	r0, [r0, #1248]
 598              	.LVL49:
 599              		.loc 1 307 3 is_stmt 0 view .LVU115
 600 0006 FFF7FEFF 		bl	USBD_LL_DevDisconnected
 601              	.LVL50:
 308:USB_DEVICE/Target/usbd_conf.c **** }
 602              		.loc 1 308 1 view .LVU116
 603 000a 08BD     		pop	{r3, pc}
 604              		.cfi_endproc
 605              	.LFE236:
 607              		.section	.text.USBD_LL_Init,"ax",%progbits
 608              		.align	1
 609              		.global	USBD_LL_Init
 610              		.syntax unified
 611              		.thumb
 612              		.thumb_func
 614              	USBD_LL_Init:
 615              	.LVL51:
 616              	.LFB237:
 309:USB_DEVICE/Target/usbd_conf.c **** 
 310:USB_DEVICE/Target/usbd_conf.c **** /*******************************************************************************
 311:USB_DEVICE/Target/usbd_conf.c ****                        LL Driver Interface (USB Device Library --> PCD)
 312:USB_DEVICE/Target/usbd_conf.c **** *******************************************************************************/
 313:USB_DEVICE/Target/usbd_conf.c **** 
 314:USB_DEVICE/Target/usbd_conf.c **** /**
 315:USB_DEVICE/Target/usbd_conf.c ****   * @brief  Initializes the low level portion of the device driver.
 316:USB_DEVICE/Target/usbd_conf.c ****   * @param  pdev: Device handle
 317:USB_DEVICE/Target/usbd_conf.c ****   * @retval USBD status
 318:USB_DEVICE/Target/usbd_conf.c ****   */
 319:USB_DEVICE/Target/usbd_conf.c **** USBD_StatusTypeDef USBD_LL_Init(USBD_HandleTypeDef *pdev)
 320:USB_DEVICE/Target/usbd_conf.c **** {
 617              		.loc 1 320 1 is_stmt 1 view -0
 618              		.cfi_startproc
 619              		@ args = 0, pretend = 0, frame = 0
 620              		@ frame_needed = 0, uses_anonymous_args = 0
 321:USB_DEVICE/Target/usbd_conf.c ****   /* Init USB Ip. */
 322:USB_DEVICE/Target/usbd_conf.c ****   if (pdev->id == DEVICE_FS) {
 621              		.loc 1 322 3 view .LVU118
 622              		.loc 1 322 11 is_stmt 0 view .LVU119
 623 0000 0278     		ldrb	r2, [r0]	@ zero_extendqisi2
 624              		.loc 1 322 6 view .LVU120
 625 0002 0AB1     		cbz	r2, .L47
 323:USB_DEVICE/Target/usbd_conf.c ****   /* Link the driver to the stack. */
 324:USB_DEVICE/Target/usbd_conf.c ****   hpcd_USB_OTG_FS.pData = pdev;
 325:USB_DEVICE/Target/usbd_conf.c ****   pdev->pData = &hpcd_USB_OTG_FS;
 326:USB_DEVICE/Target/usbd_conf.c **** 
 327:USB_DEVICE/Target/usbd_conf.c ****   hpcd_USB_OTG_FS.Instance = USB_OTG_FS;
 328:USB_DEVICE/Target/usbd_conf.c ****   hpcd_USB_OTG_FS.Init.dev_endpoints = 4;
 329:USB_DEVICE/Target/usbd_conf.c ****   hpcd_USB_OTG_FS.Init.speed = PCD_SPEED_FULL;
 330:USB_DEVICE/Target/usbd_conf.c ****   hpcd_USB_OTG_FS.Init.dma_enable = DISABLE;
 331:USB_DEVICE/Target/usbd_conf.c ****   hpcd_USB_OTG_FS.Init.phy_itface = PCD_PHY_EMBEDDED;
 332:USB_DEVICE/Target/usbd_conf.c ****   hpcd_USB_OTG_FS.Init.Sof_enable = DISABLE;
 333:USB_DEVICE/Target/usbd_conf.c ****   hpcd_USB_OTG_FS.Init.low_power_enable = DISABLE;
 334:USB_DEVICE/Target/usbd_conf.c ****   hpcd_USB_OTG_FS.Init.lpm_enable = DISABLE;
 335:USB_DEVICE/Target/usbd_conf.c ****   hpcd_USB_OTG_FS.Init.vbus_sensing_enable = DISABLE;
 336:USB_DEVICE/Target/usbd_conf.c ****   hpcd_USB_OTG_FS.Init.use_dedicated_ep1 = DISABLE;
 337:USB_DEVICE/Target/usbd_conf.c ****   if (HAL_PCD_Init(&hpcd_USB_OTG_FS) != HAL_OK)
ARM GAS  C:\Users\DAELT-~1\AppData\Local\Temp\ccxtwJwK.s 			page 18


 338:USB_DEVICE/Target/usbd_conf.c ****   {
 339:USB_DEVICE/Target/usbd_conf.c ****     Error_Handler( );
 340:USB_DEVICE/Target/usbd_conf.c ****   }
 341:USB_DEVICE/Target/usbd_conf.c **** 
 342:USB_DEVICE/Target/usbd_conf.c **** #if (USE_HAL_PCD_REGISTER_CALLBACKS == 1U)
 343:USB_DEVICE/Target/usbd_conf.c ****   /* Register USB PCD CallBacks */
 344:USB_DEVICE/Target/usbd_conf.c ****   HAL_PCD_RegisterCallback(&hpcd_USB_OTG_FS, HAL_PCD_SOF_CB_ID, PCD_SOFCallback);
 345:USB_DEVICE/Target/usbd_conf.c ****   HAL_PCD_RegisterCallback(&hpcd_USB_OTG_FS, HAL_PCD_SETUPSTAGE_CB_ID, PCD_SetupStageCallback);
 346:USB_DEVICE/Target/usbd_conf.c ****   HAL_PCD_RegisterCallback(&hpcd_USB_OTG_FS, HAL_PCD_RESET_CB_ID, PCD_ResetCallback);
 347:USB_DEVICE/Target/usbd_conf.c ****   HAL_PCD_RegisterCallback(&hpcd_USB_OTG_FS, HAL_PCD_SUSPEND_CB_ID, PCD_SuspendCallback);
 348:USB_DEVICE/Target/usbd_conf.c ****   HAL_PCD_RegisterCallback(&hpcd_USB_OTG_FS, HAL_PCD_RESUME_CB_ID, PCD_ResumeCallback);
 349:USB_DEVICE/Target/usbd_conf.c ****   HAL_PCD_RegisterCallback(&hpcd_USB_OTG_FS, HAL_PCD_CONNECT_CB_ID, PCD_ConnectCallback);
 350:USB_DEVICE/Target/usbd_conf.c ****   HAL_PCD_RegisterCallback(&hpcd_USB_OTG_FS, HAL_PCD_DISCONNECT_CB_ID, PCD_DisconnectCallback);
 351:USB_DEVICE/Target/usbd_conf.c **** 
 352:USB_DEVICE/Target/usbd_conf.c ****   HAL_PCD_RegisterDataOutStageCallback(&hpcd_USB_OTG_FS, PCD_DataOutStageCallback);
 353:USB_DEVICE/Target/usbd_conf.c ****   HAL_PCD_RegisterDataInStageCallback(&hpcd_USB_OTG_FS, PCD_DataInStageCallback);
 354:USB_DEVICE/Target/usbd_conf.c ****   HAL_PCD_RegisterIsoOutIncpltCallback(&hpcd_USB_OTG_FS, PCD_ISOOUTIncompleteCallback);
 355:USB_DEVICE/Target/usbd_conf.c ****   HAL_PCD_RegisterIsoInIncpltCallback(&hpcd_USB_OTG_FS, PCD_ISOINIncompleteCallback);
 356:USB_DEVICE/Target/usbd_conf.c **** #endif /* USE_HAL_PCD_REGISTER_CALLBACKS */
 357:USB_DEVICE/Target/usbd_conf.c ****   HAL_PCDEx_SetRxFiFo(&hpcd_USB_OTG_FS, 0x80);
 358:USB_DEVICE/Target/usbd_conf.c ****   HAL_PCDEx_SetTxFiFo(&hpcd_USB_OTG_FS, 0, 0x40);
 359:USB_DEVICE/Target/usbd_conf.c ****   HAL_PCDEx_SetTxFiFo(&hpcd_USB_OTG_FS, 1, 0x80);
 360:USB_DEVICE/Target/usbd_conf.c ****   }
 361:USB_DEVICE/Target/usbd_conf.c ****   return USBD_OK;
 626              		.loc 1 361 3 is_stmt 1 view .LVU121
 362:USB_DEVICE/Target/usbd_conf.c **** }
 627              		.loc 1 362 1 is_stmt 0 view .LVU122
 628 0004 0020     		movs	r0, #0
 629              	.LVL52:
 630              		.loc 1 362 1 view .LVU123
 631 0006 7047     		bx	lr
 632              	.LVL53:
 633              	.L47:
 320:USB_DEVICE/Target/usbd_conf.c ****   /* Init USB Ip. */
 634              		.loc 1 320 1 view .LVU124
 635 0008 10B5     		push	{r4, lr}
 636              	.LCFI16:
 637              		.cfi_def_cfa_offset 8
 638              		.cfi_offset 4, -8
 639              		.cfi_offset 14, -4
 640 000a 0346     		mov	r3, r0
 324:USB_DEVICE/Target/usbd_conf.c ****   pdev->pData = &hpcd_USB_OTG_FS;
 641              		.loc 1 324 3 is_stmt 1 view .LVU125
 324:USB_DEVICE/Target/usbd_conf.c ****   pdev->pData = &hpcd_USB_OTG_FS;
 642              		.loc 1 324 25 is_stmt 0 view .LVU126
 643 000c 1548     		ldr	r0, .L49
 644              	.LVL54:
 324:USB_DEVICE/Target/usbd_conf.c ****   pdev->pData = &hpcd_USB_OTG_FS;
 645              		.loc 1 324 25 view .LVU127
 646 000e C0F8E034 		str	r3, [r0, #1248]
 325:USB_DEVICE/Target/usbd_conf.c **** 
 647              		.loc 1 325 3 is_stmt 1 view .LVU128
 325:USB_DEVICE/Target/usbd_conf.c **** 
 648              		.loc 1 325 15 is_stmt 0 view .LVU129
 649 0012 C3F8C802 		str	r0, [r3, #712]
 327:USB_DEVICE/Target/usbd_conf.c ****   hpcd_USB_OTG_FS.Init.dev_endpoints = 4;
 650              		.loc 1 327 3 is_stmt 1 view .LVU130
ARM GAS  C:\Users\DAELT-~1\AppData\Local\Temp\ccxtwJwK.s 			page 19


 327:USB_DEVICE/Target/usbd_conf.c ****   hpcd_USB_OTG_FS.Init.dev_endpoints = 4;
 651              		.loc 1 327 28 is_stmt 0 view .LVU131
 652 0016 4FF0A043 		mov	r3, #1342177280
 653              	.LVL55:
 327:USB_DEVICE/Target/usbd_conf.c ****   hpcd_USB_OTG_FS.Init.dev_endpoints = 4;
 654              		.loc 1 327 28 view .LVU132
 655 001a 0360     		str	r3, [r0]
 328:USB_DEVICE/Target/usbd_conf.c ****   hpcd_USB_OTG_FS.Init.speed = PCD_SPEED_FULL;
 656              		.loc 1 328 3 is_stmt 1 view .LVU133
 328:USB_DEVICE/Target/usbd_conf.c ****   hpcd_USB_OTG_FS.Init.speed = PCD_SPEED_FULL;
 657              		.loc 1 328 38 is_stmt 0 view .LVU134
 658 001c 0423     		movs	r3, #4
 659 001e 0371     		strb	r3, [r0, #4]
 329:USB_DEVICE/Target/usbd_conf.c ****   hpcd_USB_OTG_FS.Init.dma_enable = DISABLE;
 660              		.loc 1 329 3 is_stmt 1 view .LVU135
 329:USB_DEVICE/Target/usbd_conf.c ****   hpcd_USB_OTG_FS.Init.dma_enable = DISABLE;
 661              		.loc 1 329 30 is_stmt 0 view .LVU136
 662 0020 0222     		movs	r2, #2
 663 0022 C271     		strb	r2, [r0, #7]
 330:USB_DEVICE/Target/usbd_conf.c ****   hpcd_USB_OTG_FS.Init.phy_itface = PCD_PHY_EMBEDDED;
 664              		.loc 1 330 3 is_stmt 1 view .LVU137
 330:USB_DEVICE/Target/usbd_conf.c ****   hpcd_USB_OTG_FS.Init.phy_itface = PCD_PHY_EMBEDDED;
 665              		.loc 1 330 35 is_stmt 0 view .LVU138
 666 0024 0023     		movs	r3, #0
 667 0026 8371     		strb	r3, [r0, #6]
 331:USB_DEVICE/Target/usbd_conf.c ****   hpcd_USB_OTG_FS.Init.Sof_enable = DISABLE;
 668              		.loc 1 331 3 is_stmt 1 view .LVU139
 331:USB_DEVICE/Target/usbd_conf.c ****   hpcd_USB_OTG_FS.Init.Sof_enable = DISABLE;
 669              		.loc 1 331 35 is_stmt 0 view .LVU140
 670 0028 4272     		strb	r2, [r0, #9]
 332:USB_DEVICE/Target/usbd_conf.c ****   hpcd_USB_OTG_FS.Init.low_power_enable = DISABLE;
 671              		.loc 1 332 3 is_stmt 1 view .LVU141
 332:USB_DEVICE/Target/usbd_conf.c ****   hpcd_USB_OTG_FS.Init.low_power_enable = DISABLE;
 672              		.loc 1 332 35 is_stmt 0 view .LVU142
 673 002a 8372     		strb	r3, [r0, #10]
 333:USB_DEVICE/Target/usbd_conf.c ****   hpcd_USB_OTG_FS.Init.lpm_enable = DISABLE;
 674              		.loc 1 333 3 is_stmt 1 view .LVU143
 333:USB_DEVICE/Target/usbd_conf.c ****   hpcd_USB_OTG_FS.Init.lpm_enable = DISABLE;
 675              		.loc 1 333 41 is_stmt 0 view .LVU144
 676 002c C372     		strb	r3, [r0, #11]
 334:USB_DEVICE/Target/usbd_conf.c ****   hpcd_USB_OTG_FS.Init.vbus_sensing_enable = DISABLE;
 677              		.loc 1 334 3 is_stmt 1 view .LVU145
 334:USB_DEVICE/Target/usbd_conf.c ****   hpcd_USB_OTG_FS.Init.vbus_sensing_enable = DISABLE;
 678              		.loc 1 334 35 is_stmt 0 view .LVU146
 679 002e 0373     		strb	r3, [r0, #12]
 335:USB_DEVICE/Target/usbd_conf.c ****   hpcd_USB_OTG_FS.Init.use_dedicated_ep1 = DISABLE;
 680              		.loc 1 335 3 is_stmt 1 view .LVU147
 335:USB_DEVICE/Target/usbd_conf.c ****   hpcd_USB_OTG_FS.Init.use_dedicated_ep1 = DISABLE;
 681              		.loc 1 335 44 is_stmt 0 view .LVU148
 682 0030 8373     		strb	r3, [r0, #14]
 336:USB_DEVICE/Target/usbd_conf.c ****   if (HAL_PCD_Init(&hpcd_USB_OTG_FS) != HAL_OK)
 683              		.loc 1 336 3 is_stmt 1 view .LVU149
 336:USB_DEVICE/Target/usbd_conf.c ****   if (HAL_PCD_Init(&hpcd_USB_OTG_FS) != HAL_OK)
 684              		.loc 1 336 42 is_stmt 0 view .LVU150
 685 0032 C373     		strb	r3, [r0, #15]
 337:USB_DEVICE/Target/usbd_conf.c ****   {
 686              		.loc 1 337 3 is_stmt 1 view .LVU151
ARM GAS  C:\Users\DAELT-~1\AppData\Local\Temp\ccxtwJwK.s 			page 20


 337:USB_DEVICE/Target/usbd_conf.c ****   {
 687              		.loc 1 337 7 is_stmt 0 view .LVU152
 688 0034 FFF7FEFF 		bl	HAL_PCD_Init
 689              	.LVL56:
 337:USB_DEVICE/Target/usbd_conf.c ****   {
 690              		.loc 1 337 6 discriminator 1 view .LVU153
 691 0038 80B9     		cbnz	r0, .L48
 692              	.L42:
 357:USB_DEVICE/Target/usbd_conf.c ****   HAL_PCDEx_SetTxFiFo(&hpcd_USB_OTG_FS, 0, 0x40);
 693              		.loc 1 357 3 is_stmt 1 view .LVU154
 694 003a 0A4C     		ldr	r4, .L49
 695 003c 8021     		movs	r1, #128
 696 003e 2046     		mov	r0, r4
 697 0040 FFF7FEFF 		bl	HAL_PCDEx_SetRxFiFo
 698              	.LVL57:
 358:USB_DEVICE/Target/usbd_conf.c ****   HAL_PCDEx_SetTxFiFo(&hpcd_USB_OTG_FS, 1, 0x80);
 699              		.loc 1 358 3 view .LVU155
 700 0044 4022     		movs	r2, #64
 701 0046 0021     		movs	r1, #0
 702 0048 2046     		mov	r0, r4
 703 004a FFF7FEFF 		bl	HAL_PCDEx_SetTxFiFo
 704              	.LVL58:
 359:USB_DEVICE/Target/usbd_conf.c ****   }
 705              		.loc 1 359 3 view .LVU156
 706 004e 8022     		movs	r2, #128
 707 0050 0121     		movs	r1, #1
 708 0052 2046     		mov	r0, r4
 709 0054 FFF7FEFF 		bl	HAL_PCDEx_SetTxFiFo
 710              	.LVL59:
 361:USB_DEVICE/Target/usbd_conf.c **** }
 711              		.loc 1 361 3 view .LVU157
 712              		.loc 1 362 1 is_stmt 0 view .LVU158
 713 0058 0020     		movs	r0, #0
 714 005a 10BD     		pop	{r4, pc}
 715              	.L48:
 339:USB_DEVICE/Target/usbd_conf.c ****   }
 716              		.loc 1 339 5 is_stmt 1 view .LVU159
 717 005c FFF7FEFF 		bl	Error_Handler
 718              	.LVL60:
 719 0060 EBE7     		b	.L42
 720              	.L50:
 721 0062 00BF     		.align	2
 722              	.L49:
 723 0064 00000000 		.word	hpcd_USB_OTG_FS
 724              		.cfi_endproc
 725              	.LFE237:
 727              		.section	.text.USBD_LL_IsStallEP,"ax",%progbits
 728              		.align	1
 729              		.global	USBD_LL_IsStallEP
 730              		.syntax unified
 731              		.thumb
 732              		.thumb_func
 734              	USBD_LL_IsStallEP:
 735              	.LVL61:
 736              	.LFB246:
 363:USB_DEVICE/Target/usbd_conf.c **** 
 364:USB_DEVICE/Target/usbd_conf.c **** /**
ARM GAS  C:\Users\DAELT-~1\AppData\Local\Temp\ccxtwJwK.s 			page 21


 365:USB_DEVICE/Target/usbd_conf.c ****   * @brief  De-Initializes the low level portion of the device driver.
 366:USB_DEVICE/Target/usbd_conf.c ****   * @param  pdev: Device handle
 367:USB_DEVICE/Target/usbd_conf.c ****   * @retval USBD status
 368:USB_DEVICE/Target/usbd_conf.c ****   */
 369:USB_DEVICE/Target/usbd_conf.c **** USBD_StatusTypeDef USBD_LL_DeInit(USBD_HandleTypeDef *pdev)
 370:USB_DEVICE/Target/usbd_conf.c **** {
 371:USB_DEVICE/Target/usbd_conf.c ****   HAL_StatusTypeDef hal_status = HAL_OK;
 372:USB_DEVICE/Target/usbd_conf.c ****   USBD_StatusTypeDef usb_status = USBD_OK;
 373:USB_DEVICE/Target/usbd_conf.c **** 
 374:USB_DEVICE/Target/usbd_conf.c ****   hal_status = HAL_PCD_DeInit(pdev->pData);
 375:USB_DEVICE/Target/usbd_conf.c **** 
 376:USB_DEVICE/Target/usbd_conf.c ****   usb_status =  USBD_Get_USB_Status(hal_status);
 377:USB_DEVICE/Target/usbd_conf.c **** 
 378:USB_DEVICE/Target/usbd_conf.c ****   return usb_status;
 379:USB_DEVICE/Target/usbd_conf.c **** }
 380:USB_DEVICE/Target/usbd_conf.c **** 
 381:USB_DEVICE/Target/usbd_conf.c **** /**
 382:USB_DEVICE/Target/usbd_conf.c ****   * @brief  Starts the low level portion of the device driver.
 383:USB_DEVICE/Target/usbd_conf.c ****   * @param  pdev: Device handle
 384:USB_DEVICE/Target/usbd_conf.c ****   * @retval USBD status
 385:USB_DEVICE/Target/usbd_conf.c ****   */
 386:USB_DEVICE/Target/usbd_conf.c **** USBD_StatusTypeDef USBD_LL_Start(USBD_HandleTypeDef *pdev)
 387:USB_DEVICE/Target/usbd_conf.c **** {
 388:USB_DEVICE/Target/usbd_conf.c ****   HAL_StatusTypeDef hal_status = HAL_OK;
 389:USB_DEVICE/Target/usbd_conf.c ****   USBD_StatusTypeDef usb_status = USBD_OK;
 390:USB_DEVICE/Target/usbd_conf.c **** 
 391:USB_DEVICE/Target/usbd_conf.c ****   hal_status = HAL_PCD_Start(pdev->pData);
 392:USB_DEVICE/Target/usbd_conf.c **** 
 393:USB_DEVICE/Target/usbd_conf.c ****   usb_status =  USBD_Get_USB_Status(hal_status);
 394:USB_DEVICE/Target/usbd_conf.c **** 
 395:USB_DEVICE/Target/usbd_conf.c ****   return usb_status;
 396:USB_DEVICE/Target/usbd_conf.c **** }
 397:USB_DEVICE/Target/usbd_conf.c **** 
 398:USB_DEVICE/Target/usbd_conf.c **** /**
 399:USB_DEVICE/Target/usbd_conf.c ****   * @brief  Stops the low level portion of the device driver.
 400:USB_DEVICE/Target/usbd_conf.c ****   * @param  pdev: Device handle
 401:USB_DEVICE/Target/usbd_conf.c ****   * @retval USBD status
 402:USB_DEVICE/Target/usbd_conf.c ****   */
 403:USB_DEVICE/Target/usbd_conf.c **** USBD_StatusTypeDef USBD_LL_Stop(USBD_HandleTypeDef *pdev)
 404:USB_DEVICE/Target/usbd_conf.c **** {
 405:USB_DEVICE/Target/usbd_conf.c ****   HAL_StatusTypeDef hal_status = HAL_OK;
 406:USB_DEVICE/Target/usbd_conf.c ****   USBD_StatusTypeDef usb_status = USBD_OK;
 407:USB_DEVICE/Target/usbd_conf.c **** 
 408:USB_DEVICE/Target/usbd_conf.c ****   hal_status = HAL_PCD_Stop(pdev->pData);
 409:USB_DEVICE/Target/usbd_conf.c **** 
 410:USB_DEVICE/Target/usbd_conf.c ****   usb_status =  USBD_Get_USB_Status(hal_status);
 411:USB_DEVICE/Target/usbd_conf.c **** 
 412:USB_DEVICE/Target/usbd_conf.c ****   return usb_status;
 413:USB_DEVICE/Target/usbd_conf.c **** }
 414:USB_DEVICE/Target/usbd_conf.c **** 
 415:USB_DEVICE/Target/usbd_conf.c **** /**
 416:USB_DEVICE/Target/usbd_conf.c ****   * @brief  Opens an endpoint of the low level driver.
 417:USB_DEVICE/Target/usbd_conf.c ****   * @param  pdev: Device handle
 418:USB_DEVICE/Target/usbd_conf.c ****   * @param  ep_addr: Endpoint number
 419:USB_DEVICE/Target/usbd_conf.c ****   * @param  ep_type: Endpoint type
 420:USB_DEVICE/Target/usbd_conf.c ****   * @param  ep_mps: Endpoint max packet size
 421:USB_DEVICE/Target/usbd_conf.c ****   * @retval USBD status
ARM GAS  C:\Users\DAELT-~1\AppData\Local\Temp\ccxtwJwK.s 			page 22


 422:USB_DEVICE/Target/usbd_conf.c ****   */
 423:USB_DEVICE/Target/usbd_conf.c **** USBD_StatusTypeDef USBD_LL_OpenEP(USBD_HandleTypeDef *pdev, uint8_t ep_addr, uint8_t ep_type, uint1
 424:USB_DEVICE/Target/usbd_conf.c **** {
 425:USB_DEVICE/Target/usbd_conf.c ****   HAL_StatusTypeDef hal_status = HAL_OK;
 426:USB_DEVICE/Target/usbd_conf.c ****   USBD_StatusTypeDef usb_status = USBD_OK;
 427:USB_DEVICE/Target/usbd_conf.c **** 
 428:USB_DEVICE/Target/usbd_conf.c ****   hal_status = HAL_PCD_EP_Open(pdev->pData, ep_addr, ep_mps, ep_type);
 429:USB_DEVICE/Target/usbd_conf.c **** 
 430:USB_DEVICE/Target/usbd_conf.c ****   usb_status =  USBD_Get_USB_Status(hal_status);
 431:USB_DEVICE/Target/usbd_conf.c **** 
 432:USB_DEVICE/Target/usbd_conf.c ****   return usb_status;
 433:USB_DEVICE/Target/usbd_conf.c **** }
 434:USB_DEVICE/Target/usbd_conf.c **** 
 435:USB_DEVICE/Target/usbd_conf.c **** /**
 436:USB_DEVICE/Target/usbd_conf.c ****   * @brief  Closes an endpoint of the low level driver.
 437:USB_DEVICE/Target/usbd_conf.c ****   * @param  pdev: Device handle
 438:USB_DEVICE/Target/usbd_conf.c ****   * @param  ep_addr: Endpoint number
 439:USB_DEVICE/Target/usbd_conf.c ****   * @retval USBD status
 440:USB_DEVICE/Target/usbd_conf.c ****   */
 441:USB_DEVICE/Target/usbd_conf.c **** USBD_StatusTypeDef USBD_LL_CloseEP(USBD_HandleTypeDef *pdev, uint8_t ep_addr)
 442:USB_DEVICE/Target/usbd_conf.c **** {
 443:USB_DEVICE/Target/usbd_conf.c ****   HAL_StatusTypeDef hal_status = HAL_OK;
 444:USB_DEVICE/Target/usbd_conf.c ****   USBD_StatusTypeDef usb_status = USBD_OK;
 445:USB_DEVICE/Target/usbd_conf.c **** 
 446:USB_DEVICE/Target/usbd_conf.c ****   hal_status = HAL_PCD_EP_Close(pdev->pData, ep_addr);
 447:USB_DEVICE/Target/usbd_conf.c **** 
 448:USB_DEVICE/Target/usbd_conf.c ****   usb_status =  USBD_Get_USB_Status(hal_status);
 449:USB_DEVICE/Target/usbd_conf.c **** 
 450:USB_DEVICE/Target/usbd_conf.c ****   return usb_status;
 451:USB_DEVICE/Target/usbd_conf.c **** }
 452:USB_DEVICE/Target/usbd_conf.c **** 
 453:USB_DEVICE/Target/usbd_conf.c **** /**
 454:USB_DEVICE/Target/usbd_conf.c ****   * @brief  Flushes an endpoint of the Low Level Driver.
 455:USB_DEVICE/Target/usbd_conf.c ****   * @param  pdev: Device handle
 456:USB_DEVICE/Target/usbd_conf.c ****   * @param  ep_addr: Endpoint number
 457:USB_DEVICE/Target/usbd_conf.c ****   * @retval USBD status
 458:USB_DEVICE/Target/usbd_conf.c ****   */
 459:USB_DEVICE/Target/usbd_conf.c **** USBD_StatusTypeDef USBD_LL_FlushEP(USBD_HandleTypeDef *pdev, uint8_t ep_addr)
 460:USB_DEVICE/Target/usbd_conf.c **** {
 461:USB_DEVICE/Target/usbd_conf.c ****   HAL_StatusTypeDef hal_status = HAL_OK;
 462:USB_DEVICE/Target/usbd_conf.c ****   USBD_StatusTypeDef usb_status = USBD_OK;
 463:USB_DEVICE/Target/usbd_conf.c **** 
 464:USB_DEVICE/Target/usbd_conf.c ****   hal_status = HAL_PCD_EP_Flush(pdev->pData, ep_addr);
 465:USB_DEVICE/Target/usbd_conf.c **** 
 466:USB_DEVICE/Target/usbd_conf.c ****   usb_status =  USBD_Get_USB_Status(hal_status);
 467:USB_DEVICE/Target/usbd_conf.c **** 
 468:USB_DEVICE/Target/usbd_conf.c ****   return usb_status;
 469:USB_DEVICE/Target/usbd_conf.c **** }
 470:USB_DEVICE/Target/usbd_conf.c **** 
 471:USB_DEVICE/Target/usbd_conf.c **** /**
 472:USB_DEVICE/Target/usbd_conf.c ****   * @brief  Sets a Stall condition on an endpoint of the Low Level Driver.
 473:USB_DEVICE/Target/usbd_conf.c ****   * @param  pdev: Device handle
 474:USB_DEVICE/Target/usbd_conf.c ****   * @param  ep_addr: Endpoint number
 475:USB_DEVICE/Target/usbd_conf.c ****   * @retval USBD status
 476:USB_DEVICE/Target/usbd_conf.c ****   */
 477:USB_DEVICE/Target/usbd_conf.c **** USBD_StatusTypeDef USBD_LL_StallEP(USBD_HandleTypeDef *pdev, uint8_t ep_addr)
 478:USB_DEVICE/Target/usbd_conf.c **** {
ARM GAS  C:\Users\DAELT-~1\AppData\Local\Temp\ccxtwJwK.s 			page 23


 479:USB_DEVICE/Target/usbd_conf.c ****   HAL_StatusTypeDef hal_status = HAL_OK;
 480:USB_DEVICE/Target/usbd_conf.c ****   USBD_StatusTypeDef usb_status = USBD_OK;
 481:USB_DEVICE/Target/usbd_conf.c **** 
 482:USB_DEVICE/Target/usbd_conf.c ****   hal_status = HAL_PCD_EP_SetStall(pdev->pData, ep_addr);
 483:USB_DEVICE/Target/usbd_conf.c **** 
 484:USB_DEVICE/Target/usbd_conf.c ****   usb_status =  USBD_Get_USB_Status(hal_status);
 485:USB_DEVICE/Target/usbd_conf.c **** 
 486:USB_DEVICE/Target/usbd_conf.c ****   return usb_status;
 487:USB_DEVICE/Target/usbd_conf.c **** }
 488:USB_DEVICE/Target/usbd_conf.c **** 
 489:USB_DEVICE/Target/usbd_conf.c **** /**
 490:USB_DEVICE/Target/usbd_conf.c ****   * @brief  Clears a Stall condition on an endpoint of the Low Level Driver.
 491:USB_DEVICE/Target/usbd_conf.c ****   * @param  pdev: Device handle
 492:USB_DEVICE/Target/usbd_conf.c ****   * @param  ep_addr: Endpoint number
 493:USB_DEVICE/Target/usbd_conf.c ****   * @retval USBD status
 494:USB_DEVICE/Target/usbd_conf.c ****   */
 495:USB_DEVICE/Target/usbd_conf.c **** USBD_StatusTypeDef USBD_LL_ClearStallEP(USBD_HandleTypeDef *pdev, uint8_t ep_addr)
 496:USB_DEVICE/Target/usbd_conf.c **** {
 497:USB_DEVICE/Target/usbd_conf.c ****   HAL_StatusTypeDef hal_status = HAL_OK;
 498:USB_DEVICE/Target/usbd_conf.c ****   USBD_StatusTypeDef usb_status = USBD_OK;
 499:USB_DEVICE/Target/usbd_conf.c **** 
 500:USB_DEVICE/Target/usbd_conf.c ****   hal_status = HAL_PCD_EP_ClrStall(pdev->pData, ep_addr);
 501:USB_DEVICE/Target/usbd_conf.c **** 
 502:USB_DEVICE/Target/usbd_conf.c ****   usb_status =  USBD_Get_USB_Status(hal_status);
 503:USB_DEVICE/Target/usbd_conf.c **** 
 504:USB_DEVICE/Target/usbd_conf.c ****   return usb_status;
 505:USB_DEVICE/Target/usbd_conf.c **** }
 506:USB_DEVICE/Target/usbd_conf.c **** 
 507:USB_DEVICE/Target/usbd_conf.c **** /**
 508:USB_DEVICE/Target/usbd_conf.c ****   * @brief  Returns Stall condition.
 509:USB_DEVICE/Target/usbd_conf.c ****   * @param  pdev: Device handle
 510:USB_DEVICE/Target/usbd_conf.c ****   * @param  ep_addr: Endpoint number
 511:USB_DEVICE/Target/usbd_conf.c ****   * @retval Stall (1: Yes, 0: No)
 512:USB_DEVICE/Target/usbd_conf.c ****   */
 513:USB_DEVICE/Target/usbd_conf.c **** uint8_t USBD_LL_IsStallEP(USBD_HandleTypeDef *pdev, uint8_t ep_addr)
 514:USB_DEVICE/Target/usbd_conf.c **** {
 737              		.loc 1 514 1 view -0
 738              		.cfi_startproc
 739              		@ args = 0, pretend = 0, frame = 0
 740              		@ frame_needed = 0, uses_anonymous_args = 0
 741              		@ link register save eliminated.
 515:USB_DEVICE/Target/usbd_conf.c ****   PCD_HandleTypeDef *hpcd = (PCD_HandleTypeDef*) pdev->pData;
 742              		.loc 1 515 3 view .LVU161
 743              		.loc 1 515 22 is_stmt 0 view .LVU162
 744 0000 D0F8C832 		ldr	r3, [r0, #712]
 745              	.LVL62:
 516:USB_DEVICE/Target/usbd_conf.c **** 
 517:USB_DEVICE/Target/usbd_conf.c ****   if((ep_addr & 0x80) == 0x80)
 746              		.loc 1 517 3 is_stmt 1 view .LVU163
 747              		.loc 1 517 5 is_stmt 0 view .LVU164
 748 0004 11F0800F 		tst	r1, #128
 749 0008 08D1     		bne	.L54
 518:USB_DEVICE/Target/usbd_conf.c ****   {
 519:USB_DEVICE/Target/usbd_conf.c ****     return hpcd->IN_ep[ep_addr & 0x7F].is_stall;
 520:USB_DEVICE/Target/usbd_conf.c ****   }
 521:USB_DEVICE/Target/usbd_conf.c ****   else
 522:USB_DEVICE/Target/usbd_conf.c ****   {
ARM GAS  C:\Users\DAELT-~1\AppData\Local\Temp\ccxtwJwK.s 			page 24


 523:USB_DEVICE/Target/usbd_conf.c ****     return hpcd->OUT_ep[ep_addr & 0x7F].is_stall;
 750              		.loc 1 523 5 is_stmt 1 view .LVU165
 751              		.loc 1 523 33 is_stmt 0 view .LVU166
 752 000a 01F07F01 		and	r1, r1, #127
 753              	.LVL63:
 754              		.loc 1 523 40 view .LVU167
 755 000e 01EBC101 		add	r1, r1, r1, lsl #3
 756 0012 03EB8103 		add	r3, r3, r1, lsl #2
 757              	.LVL64:
 758              		.loc 1 523 40 view .LVU168
 759 0016 93F85602 		ldrb	r0, [r3, #598]	@ zero_extendqisi2
 760              	.LVL65:
 524:USB_DEVICE/Target/usbd_conf.c ****   }
 525:USB_DEVICE/Target/usbd_conf.c **** }
 761              		.loc 1 525 1 view .LVU169
 762 001a 7047     		bx	lr
 763              	.LVL66:
 764              	.L54:
 519:USB_DEVICE/Target/usbd_conf.c ****   }
 765              		.loc 1 519 5 is_stmt 1 view .LVU170
 519:USB_DEVICE/Target/usbd_conf.c ****   }
 766              		.loc 1 519 32 is_stmt 0 view .LVU171
 767 001c 01F07F01 		and	r1, r1, #127
 768              	.LVL67:
 519:USB_DEVICE/Target/usbd_conf.c ****   }
 769              		.loc 1 519 39 view .LVU172
 770 0020 01EBC101 		add	r1, r1, r1, lsl #3
 771 0024 03EB8103 		add	r3, r3, r1, lsl #2
 772              	.LVL68:
 519:USB_DEVICE/Target/usbd_conf.c ****   }
 773              		.loc 1 519 39 view .LVU173
 774 0028 987D     		ldrb	r0, [r3, #22]	@ zero_extendqisi2
 775              	.LVL69:
 519:USB_DEVICE/Target/usbd_conf.c ****   }
 776              		.loc 1 519 39 view .LVU174
 777 002a 7047     		bx	lr
 778              		.cfi_endproc
 779              	.LFE246:
 781              		.section	.text.USBD_LL_GetRxDataSize,"ax",%progbits
 782              		.align	1
 783              		.global	USBD_LL_GetRxDataSize
 784              		.syntax unified
 785              		.thumb
 786              		.thumb_func
 788              	USBD_LL_GetRxDataSize:
 789              	.LVL70:
 790              	.LFB250:
 526:USB_DEVICE/Target/usbd_conf.c **** 
 527:USB_DEVICE/Target/usbd_conf.c **** /**
 528:USB_DEVICE/Target/usbd_conf.c ****   * @brief  Assigns a USB address to the device.
 529:USB_DEVICE/Target/usbd_conf.c ****   * @param  pdev: Device handle
 530:USB_DEVICE/Target/usbd_conf.c ****   * @param  dev_addr: Device address
 531:USB_DEVICE/Target/usbd_conf.c ****   * @retval USBD status
 532:USB_DEVICE/Target/usbd_conf.c ****   */
 533:USB_DEVICE/Target/usbd_conf.c **** USBD_StatusTypeDef USBD_LL_SetUSBAddress(USBD_HandleTypeDef *pdev, uint8_t dev_addr)
 534:USB_DEVICE/Target/usbd_conf.c **** {
 535:USB_DEVICE/Target/usbd_conf.c ****   HAL_StatusTypeDef hal_status = HAL_OK;
ARM GAS  C:\Users\DAELT-~1\AppData\Local\Temp\ccxtwJwK.s 			page 25


 536:USB_DEVICE/Target/usbd_conf.c ****   USBD_StatusTypeDef usb_status = USBD_OK;
 537:USB_DEVICE/Target/usbd_conf.c **** 
 538:USB_DEVICE/Target/usbd_conf.c ****   hal_status = HAL_PCD_SetAddress(pdev->pData, dev_addr);
 539:USB_DEVICE/Target/usbd_conf.c **** 
 540:USB_DEVICE/Target/usbd_conf.c ****   usb_status =  USBD_Get_USB_Status(hal_status);
 541:USB_DEVICE/Target/usbd_conf.c **** 
 542:USB_DEVICE/Target/usbd_conf.c ****   return usb_status;
 543:USB_DEVICE/Target/usbd_conf.c **** }
 544:USB_DEVICE/Target/usbd_conf.c **** 
 545:USB_DEVICE/Target/usbd_conf.c **** /**
 546:USB_DEVICE/Target/usbd_conf.c ****   * @brief  Transmits data over an endpoint.
 547:USB_DEVICE/Target/usbd_conf.c ****   * @param  pdev: Device handle
 548:USB_DEVICE/Target/usbd_conf.c ****   * @param  ep_addr: Endpoint number
 549:USB_DEVICE/Target/usbd_conf.c ****   * @param  pbuf: Pointer to data to be sent
 550:USB_DEVICE/Target/usbd_conf.c ****   * @param  size: Data size
 551:USB_DEVICE/Target/usbd_conf.c ****   * @retval USBD status
 552:USB_DEVICE/Target/usbd_conf.c ****   */
 553:USB_DEVICE/Target/usbd_conf.c **** USBD_StatusTypeDef USBD_LL_Transmit(USBD_HandleTypeDef *pdev, uint8_t ep_addr, uint8_t *pbuf, uint3
 554:USB_DEVICE/Target/usbd_conf.c **** {
 555:USB_DEVICE/Target/usbd_conf.c ****   HAL_StatusTypeDef hal_status = HAL_OK;
 556:USB_DEVICE/Target/usbd_conf.c ****   USBD_StatusTypeDef usb_status = USBD_OK;
 557:USB_DEVICE/Target/usbd_conf.c **** 
 558:USB_DEVICE/Target/usbd_conf.c ****   hal_status = HAL_PCD_EP_Transmit(pdev->pData, ep_addr, pbuf, size);
 559:USB_DEVICE/Target/usbd_conf.c **** 
 560:USB_DEVICE/Target/usbd_conf.c ****   usb_status =  USBD_Get_USB_Status(hal_status);
 561:USB_DEVICE/Target/usbd_conf.c **** 
 562:USB_DEVICE/Target/usbd_conf.c ****   return usb_status;
 563:USB_DEVICE/Target/usbd_conf.c **** }
 564:USB_DEVICE/Target/usbd_conf.c **** 
 565:USB_DEVICE/Target/usbd_conf.c **** /**
 566:USB_DEVICE/Target/usbd_conf.c ****   * @brief  Prepares an endpoint for reception.
 567:USB_DEVICE/Target/usbd_conf.c ****   * @param  pdev: Device handle
 568:USB_DEVICE/Target/usbd_conf.c ****   * @param  ep_addr: Endpoint number
 569:USB_DEVICE/Target/usbd_conf.c ****   * @param  pbuf: Pointer to data to be received
 570:USB_DEVICE/Target/usbd_conf.c ****   * @param  size: Data size
 571:USB_DEVICE/Target/usbd_conf.c ****   * @retval USBD status
 572:USB_DEVICE/Target/usbd_conf.c ****   */
 573:USB_DEVICE/Target/usbd_conf.c **** USBD_StatusTypeDef USBD_LL_PrepareReceive(USBD_HandleTypeDef *pdev, uint8_t ep_addr, uint8_t *pbuf,
 574:USB_DEVICE/Target/usbd_conf.c **** {
 575:USB_DEVICE/Target/usbd_conf.c ****   HAL_StatusTypeDef hal_status = HAL_OK;
 576:USB_DEVICE/Target/usbd_conf.c ****   USBD_StatusTypeDef usb_status = USBD_OK;
 577:USB_DEVICE/Target/usbd_conf.c **** 
 578:USB_DEVICE/Target/usbd_conf.c ****   hal_status = HAL_PCD_EP_Receive(pdev->pData, ep_addr, pbuf, size);
 579:USB_DEVICE/Target/usbd_conf.c **** 
 580:USB_DEVICE/Target/usbd_conf.c ****   usb_status =  USBD_Get_USB_Status(hal_status);
 581:USB_DEVICE/Target/usbd_conf.c **** 
 582:USB_DEVICE/Target/usbd_conf.c ****   return usb_status;
 583:USB_DEVICE/Target/usbd_conf.c **** }
 584:USB_DEVICE/Target/usbd_conf.c **** 
 585:USB_DEVICE/Target/usbd_conf.c **** /**
 586:USB_DEVICE/Target/usbd_conf.c ****   * @brief  Returns the last transferred packet size.
 587:USB_DEVICE/Target/usbd_conf.c ****   * @param  pdev: Device handle
 588:USB_DEVICE/Target/usbd_conf.c ****   * @param  ep_addr: Endpoint number
 589:USB_DEVICE/Target/usbd_conf.c ****   * @retval Received Data Size
 590:USB_DEVICE/Target/usbd_conf.c ****   */
 591:USB_DEVICE/Target/usbd_conf.c **** uint32_t USBD_LL_GetRxDataSize(USBD_HandleTypeDef *pdev, uint8_t ep_addr)
 592:USB_DEVICE/Target/usbd_conf.c **** {
ARM GAS  C:\Users\DAELT-~1\AppData\Local\Temp\ccxtwJwK.s 			page 26


 791              		.loc 1 592 1 is_stmt 1 view -0
 792              		.cfi_startproc
 793              		@ args = 0, pretend = 0, frame = 0
 794              		@ frame_needed = 0, uses_anonymous_args = 0
 795              		.loc 1 592 1 is_stmt 0 view .LVU176
 796 0000 08B5     		push	{r3, lr}
 797              	.LCFI17:
 798              		.cfi_def_cfa_offset 8
 799              		.cfi_offset 3, -8
 800              		.cfi_offset 14, -4
 593:USB_DEVICE/Target/usbd_conf.c ****   return HAL_PCD_EP_GetRxCount((PCD_HandleTypeDef*) pdev->pData, ep_addr);
 801              		.loc 1 593 3 is_stmt 1 view .LVU177
 802              		.loc 1 593 10 is_stmt 0 view .LVU178
 803 0002 D0F8C802 		ldr	r0, [r0, #712]
 804              	.LVL71:
 805              		.loc 1 593 10 view .LVU179
 806 0006 FFF7FEFF 		bl	HAL_PCD_EP_GetRxCount
 807              	.LVL72:
 594:USB_DEVICE/Target/usbd_conf.c **** }
 808              		.loc 1 594 1 view .LVU180
 809 000a 08BD     		pop	{r3, pc}
 810              		.cfi_endproc
 811              	.LFE250:
 813              		.section	.text.USBD_static_malloc,"ax",%progbits
 814              		.align	1
 815              		.global	USBD_static_malloc
 816              		.syntax unified
 817              		.thumb
 818              		.thumb_func
 820              	USBD_static_malloc:
 821              	.LVL73:
 822              	.LFB251:
 595:USB_DEVICE/Target/usbd_conf.c **** 
 596:USB_DEVICE/Target/usbd_conf.c **** #ifdef USBD_HS_TESTMODE_ENABLE
 597:USB_DEVICE/Target/usbd_conf.c **** /**
 598:USB_DEVICE/Target/usbd_conf.c ****   * @brief  Set High speed Test mode.
 599:USB_DEVICE/Target/usbd_conf.c ****   * @param  pdev: Device handle
 600:USB_DEVICE/Target/usbd_conf.c ****   * @param  testmode: test mode
 601:USB_DEVICE/Target/usbd_conf.c ****   * @retval USBD Status
 602:USB_DEVICE/Target/usbd_conf.c ****   */
 603:USB_DEVICE/Target/usbd_conf.c **** USBD_StatusTypeDef USBD_LL_SetTestMode(USBD_HandleTypeDef *pdev, uint8_t testmode)
 604:USB_DEVICE/Target/usbd_conf.c **** {
 605:USB_DEVICE/Target/usbd_conf.c ****   UNUSED(pdev);
 606:USB_DEVICE/Target/usbd_conf.c ****   UNUSED(testmode);
 607:USB_DEVICE/Target/usbd_conf.c **** 
 608:USB_DEVICE/Target/usbd_conf.c ****   return USBD_OK;
 609:USB_DEVICE/Target/usbd_conf.c **** }
 610:USB_DEVICE/Target/usbd_conf.c **** #endif /* USBD_HS_TESTMODE_ENABLE */
 611:USB_DEVICE/Target/usbd_conf.c **** 
 612:USB_DEVICE/Target/usbd_conf.c **** /**
 613:USB_DEVICE/Target/usbd_conf.c ****   * @brief  Static single allocation.
 614:USB_DEVICE/Target/usbd_conf.c ****   * @param  size: Size of allocated memory
 615:USB_DEVICE/Target/usbd_conf.c ****   * @retval None
 616:USB_DEVICE/Target/usbd_conf.c ****   */
 617:USB_DEVICE/Target/usbd_conf.c **** void *USBD_static_malloc(uint32_t size)
 618:USB_DEVICE/Target/usbd_conf.c **** {
 823              		.loc 1 618 1 is_stmt 1 view -0
ARM GAS  C:\Users\DAELT-~1\AppData\Local\Temp\ccxtwJwK.s 			page 27


 824              		.cfi_startproc
 825              		@ args = 0, pretend = 0, frame = 0
 826              		@ frame_needed = 0, uses_anonymous_args = 0
 827              		@ link register save eliminated.
 619:USB_DEVICE/Target/usbd_conf.c ****   static uint32_t mem[(sizeof(USBD_CDC_HandleTypeDef)/4)+1];/* On 32-bit boundary */
 828              		.loc 1 619 3 view .LVU182
 620:USB_DEVICE/Target/usbd_conf.c ****   return mem;
 829              		.loc 1 620 3 view .LVU183
 621:USB_DEVICE/Target/usbd_conf.c **** }
 830              		.loc 1 621 1 is_stmt 0 view .LVU184
 831 0000 0048     		ldr	r0, .L58
 832              	.LVL74:
 833              		.loc 1 621 1 view .LVU185
 834 0002 7047     		bx	lr
 835              	.L59:
 836              		.align	2
 837              	.L58:
 838 0004 00000000 		.word	mem.0
 839              		.cfi_endproc
 840              	.LFE251:
 842              		.section	.text.USBD_static_free,"ax",%progbits
 843              		.align	1
 844              		.global	USBD_static_free
 845              		.syntax unified
 846              		.thumb
 847              		.thumb_func
 849              	USBD_static_free:
 850              	.LVL75:
 851              	.LFB252:
 622:USB_DEVICE/Target/usbd_conf.c **** 
 623:USB_DEVICE/Target/usbd_conf.c **** /**
 624:USB_DEVICE/Target/usbd_conf.c ****   * @brief  Dummy memory free
 625:USB_DEVICE/Target/usbd_conf.c ****   * @param  p: Pointer to allocated  memory address
 626:USB_DEVICE/Target/usbd_conf.c ****   * @retval None
 627:USB_DEVICE/Target/usbd_conf.c ****   */
 628:USB_DEVICE/Target/usbd_conf.c **** void USBD_static_free(void *p)
 629:USB_DEVICE/Target/usbd_conf.c **** {
 852              		.loc 1 629 1 is_stmt 1 view -0
 853              		.cfi_startproc
 854              		@ args = 0, pretend = 0, frame = 0
 855              		@ frame_needed = 0, uses_anonymous_args = 0
 856              		@ link register save eliminated.
 630:USB_DEVICE/Target/usbd_conf.c **** 
 631:USB_DEVICE/Target/usbd_conf.c **** }
 857              		.loc 1 631 1 view .LVU187
 858 0000 7047     		bx	lr
 859              		.cfi_endproc
 860              	.LFE252:
 862              		.section	.text.USBD_LL_Delay,"ax",%progbits
 863              		.align	1
 864              		.global	USBD_LL_Delay
 865              		.syntax unified
 866              		.thumb
 867              		.thumb_func
 869              	USBD_LL_Delay:
 870              	.LVL76:
 871              	.LFB253:
ARM GAS  C:\Users\DAELT-~1\AppData\Local\Temp\ccxtwJwK.s 			page 28


 632:USB_DEVICE/Target/usbd_conf.c **** 
 633:USB_DEVICE/Target/usbd_conf.c **** /**
 634:USB_DEVICE/Target/usbd_conf.c ****   * @brief  Delays routine for the USB Device Library.
 635:USB_DEVICE/Target/usbd_conf.c ****   * @param  Delay: Delay in ms
 636:USB_DEVICE/Target/usbd_conf.c ****   * @retval None
 637:USB_DEVICE/Target/usbd_conf.c ****   */
 638:USB_DEVICE/Target/usbd_conf.c **** void USBD_LL_Delay(uint32_t Delay)
 639:USB_DEVICE/Target/usbd_conf.c **** {
 872              		.loc 1 639 1 view -0
 873              		.cfi_startproc
 874              		@ args = 0, pretend = 0, frame = 0
 875              		@ frame_needed = 0, uses_anonymous_args = 0
 876              		.loc 1 639 1 is_stmt 0 view .LVU189
 877 0000 08B5     		push	{r3, lr}
 878              	.LCFI18:
 879              		.cfi_def_cfa_offset 8
 880              		.cfi_offset 3, -8
 881              		.cfi_offset 14, -4
 640:USB_DEVICE/Target/usbd_conf.c ****   HAL_Delay(Delay);
 882              		.loc 1 640 3 is_stmt 1 view .LVU190
 883 0002 FFF7FEFF 		bl	HAL_Delay
 884              	.LVL77:
 641:USB_DEVICE/Target/usbd_conf.c **** }
 885              		.loc 1 641 1 is_stmt 0 view .LVU191
 886 0006 08BD     		pop	{r3, pc}
 887              		.cfi_endproc
 888              	.LFE253:
 890              		.section	.text.USBD_Get_USB_Status,"ax",%progbits
 891              		.align	1
 892              		.global	USBD_Get_USB_Status
 893              		.syntax unified
 894              		.thumb
 895              		.thumb_func
 897              	USBD_Get_USB_Status:
 898              	.LVL78:
 899              	.LFB254:
 642:USB_DEVICE/Target/usbd_conf.c **** 
 643:USB_DEVICE/Target/usbd_conf.c **** /**
 644:USB_DEVICE/Target/usbd_conf.c ****   * @brief  Returns the USB status depending on the HAL status:
 645:USB_DEVICE/Target/usbd_conf.c ****   * @param  hal_status: HAL status
 646:USB_DEVICE/Target/usbd_conf.c ****   * @retval USB status
 647:USB_DEVICE/Target/usbd_conf.c ****   */
 648:USB_DEVICE/Target/usbd_conf.c **** USBD_StatusTypeDef USBD_Get_USB_Status(HAL_StatusTypeDef hal_status)
 649:USB_DEVICE/Target/usbd_conf.c **** {
 900              		.loc 1 649 1 is_stmt 1 view -0
 901              		.cfi_startproc
 902              		@ args = 0, pretend = 0, frame = 0
 903              		@ frame_needed = 0, uses_anonymous_args = 0
 904              		@ link register save eliminated.
 650:USB_DEVICE/Target/usbd_conf.c ****   USBD_StatusTypeDef usb_status = USBD_OK;
 905              		.loc 1 650 3 view .LVU193
 651:USB_DEVICE/Target/usbd_conf.c **** 
 652:USB_DEVICE/Target/usbd_conf.c ****   switch (hal_status)
 906              		.loc 1 652 3 view .LVU194
 907 0000 0328     		cmp	r0, #3
 908 0002 05D8     		bhi	.L69
 909 0004 DFE800F0 		tbb	[pc, r0]
ARM GAS  C:\Users\DAELT-~1\AppData\Local\Temp\ccxtwJwK.s 			page 29


 910              	.L66:
 911 0008 05       		.byte	(.L64-.L66)/2
 912 0009 04       		.byte	(.L69-.L66)/2
 913 000a 02       		.byte	(.L67-.L66)/2
 914 000b 05       		.byte	(.L64-.L66)/2
 915              		.p2align 1
 916              	.L67:
 653:USB_DEVICE/Target/usbd_conf.c ****   {
 654:USB_DEVICE/Target/usbd_conf.c ****     case HAL_OK :
 655:USB_DEVICE/Target/usbd_conf.c ****       usb_status = USBD_OK;
 656:USB_DEVICE/Target/usbd_conf.c ****     break;
 657:USB_DEVICE/Target/usbd_conf.c ****     case HAL_ERROR :
 658:USB_DEVICE/Target/usbd_conf.c ****       usb_status = USBD_FAIL;
 659:USB_DEVICE/Target/usbd_conf.c ****     break;
 660:USB_DEVICE/Target/usbd_conf.c ****     case HAL_BUSY :
 661:USB_DEVICE/Target/usbd_conf.c ****       usb_status = USBD_BUSY;
 917              		.loc 1 661 7 view .LVU195
 918              	.LVL79:
 662:USB_DEVICE/Target/usbd_conf.c ****     break;
 919              		.loc 1 662 5 view .LVU196
 661:USB_DEVICE/Target/usbd_conf.c ****     break;
 920              		.loc 1 661 18 is_stmt 0 view .LVU197
 921 000c 0120     		movs	r0, #1
 922              	.LVL80:
 923              		.loc 1 662 5 view .LVU198
 924 000e 7047     		bx	lr
 925              	.LVL81:
 926              	.L69:
 658:USB_DEVICE/Target/usbd_conf.c ****     break;
 927              		.loc 1 658 18 view .LVU199
 928 0010 0320     		movs	r0, #3
 929              	.LVL82:
 930              	.L64:
 663:USB_DEVICE/Target/usbd_conf.c ****     case HAL_TIMEOUT :
 664:USB_DEVICE/Target/usbd_conf.c ****       usb_status = USBD_FAIL;
 665:USB_DEVICE/Target/usbd_conf.c ****     break;
 666:USB_DEVICE/Target/usbd_conf.c ****     default :
 667:USB_DEVICE/Target/usbd_conf.c ****       usb_status = USBD_FAIL;
 668:USB_DEVICE/Target/usbd_conf.c ****     break;
 669:USB_DEVICE/Target/usbd_conf.c ****   }
 670:USB_DEVICE/Target/usbd_conf.c ****   return usb_status;
 931              		.loc 1 670 3 is_stmt 1 view .LVU200
 671:USB_DEVICE/Target/usbd_conf.c **** }
 932              		.loc 1 671 1 is_stmt 0 view .LVU201
 933 0012 7047     		bx	lr
 934              		.cfi_endproc
 935              	.LFE254:
 937              		.section	.text.USBD_LL_DeInit,"ax",%progbits
 938              		.align	1
 939              		.global	USBD_LL_DeInit
 940              		.syntax unified
 941              		.thumb
 942              		.thumb_func
 944              	USBD_LL_DeInit:
 945              	.LVL83:
 946              	.LFB238:
 370:USB_DEVICE/Target/usbd_conf.c ****   HAL_StatusTypeDef hal_status = HAL_OK;
ARM GAS  C:\Users\DAELT-~1\AppData\Local\Temp\ccxtwJwK.s 			page 30


 947              		.loc 1 370 1 is_stmt 1 view -0
 948              		.cfi_startproc
 949              		@ args = 0, pretend = 0, frame = 0
 950              		@ frame_needed = 0, uses_anonymous_args = 0
 370:USB_DEVICE/Target/usbd_conf.c ****   HAL_StatusTypeDef hal_status = HAL_OK;
 951              		.loc 1 370 1 is_stmt 0 view .LVU203
 952 0000 08B5     		push	{r3, lr}
 953              	.LCFI19:
 954              		.cfi_def_cfa_offset 8
 955              		.cfi_offset 3, -8
 956              		.cfi_offset 14, -4
 371:USB_DEVICE/Target/usbd_conf.c ****   USBD_StatusTypeDef usb_status = USBD_OK;
 957              		.loc 1 371 3 is_stmt 1 view .LVU204
 958              	.LVL84:
 372:USB_DEVICE/Target/usbd_conf.c **** 
 959              		.loc 1 372 3 view .LVU205
 374:USB_DEVICE/Target/usbd_conf.c **** 
 960              		.loc 1 374 3 view .LVU206
 374:USB_DEVICE/Target/usbd_conf.c **** 
 961              		.loc 1 374 16 is_stmt 0 view .LVU207
 962 0002 D0F8C802 		ldr	r0, [r0, #712]
 963              	.LVL85:
 374:USB_DEVICE/Target/usbd_conf.c **** 
 964              		.loc 1 374 16 view .LVU208
 965 0006 FFF7FEFF 		bl	HAL_PCD_DeInit
 966              	.LVL86:
 376:USB_DEVICE/Target/usbd_conf.c **** 
 967              		.loc 1 376 3 is_stmt 1 view .LVU209
 376:USB_DEVICE/Target/usbd_conf.c **** 
 968              		.loc 1 376 17 is_stmt 0 view .LVU210
 969 000a FFF7FEFF 		bl	USBD_Get_USB_Status
 970              	.LVL87:
 378:USB_DEVICE/Target/usbd_conf.c **** }
 971              		.loc 1 378 3 is_stmt 1 view .LVU211
 379:USB_DEVICE/Target/usbd_conf.c **** 
 972              		.loc 1 379 1 is_stmt 0 view .LVU212
 973 000e 08BD     		pop	{r3, pc}
 974              		.cfi_endproc
 975              	.LFE238:
 977              		.section	.text.USBD_LL_Start,"ax",%progbits
 978              		.align	1
 979              		.global	USBD_LL_Start
 980              		.syntax unified
 981              		.thumb
 982              		.thumb_func
 984              	USBD_LL_Start:
 985              	.LVL88:
 986              	.LFB239:
 387:USB_DEVICE/Target/usbd_conf.c ****   HAL_StatusTypeDef hal_status = HAL_OK;
 987              		.loc 1 387 1 is_stmt 1 view -0
 988              		.cfi_startproc
 989              		@ args = 0, pretend = 0, frame = 0
 990              		@ frame_needed = 0, uses_anonymous_args = 0
 387:USB_DEVICE/Target/usbd_conf.c ****   HAL_StatusTypeDef hal_status = HAL_OK;
 991              		.loc 1 387 1 is_stmt 0 view .LVU214
 992 0000 08B5     		push	{r3, lr}
 993              	.LCFI20:
ARM GAS  C:\Users\DAELT-~1\AppData\Local\Temp\ccxtwJwK.s 			page 31


 994              		.cfi_def_cfa_offset 8
 995              		.cfi_offset 3, -8
 996              		.cfi_offset 14, -4
 388:USB_DEVICE/Target/usbd_conf.c ****   USBD_StatusTypeDef usb_status = USBD_OK;
 997              		.loc 1 388 3 is_stmt 1 view .LVU215
 998              	.LVL89:
 389:USB_DEVICE/Target/usbd_conf.c **** 
 999              		.loc 1 389 3 view .LVU216
 391:USB_DEVICE/Target/usbd_conf.c **** 
 1000              		.loc 1 391 3 view .LVU217
 391:USB_DEVICE/Target/usbd_conf.c **** 
 1001              		.loc 1 391 16 is_stmt 0 view .LVU218
 1002 0002 D0F8C802 		ldr	r0, [r0, #712]
 1003              	.LVL90:
 391:USB_DEVICE/Target/usbd_conf.c **** 
 1004              		.loc 1 391 16 view .LVU219
 1005 0006 FFF7FEFF 		bl	HAL_PCD_Start
 1006              	.LVL91:
 393:USB_DEVICE/Target/usbd_conf.c **** 
 1007              		.loc 1 393 3 is_stmt 1 view .LVU220
 393:USB_DEVICE/Target/usbd_conf.c **** 
 1008              		.loc 1 393 17 is_stmt 0 view .LVU221
 1009 000a FFF7FEFF 		bl	USBD_Get_USB_Status
 1010              	.LVL92:
 395:USB_DEVICE/Target/usbd_conf.c **** }
 1011              		.loc 1 395 3 is_stmt 1 view .LVU222
 396:USB_DEVICE/Target/usbd_conf.c **** 
 1012              		.loc 1 396 1 is_stmt 0 view .LVU223
 1013 000e 08BD     		pop	{r3, pc}
 1014              		.cfi_endproc
 1015              	.LFE239:
 1017              		.section	.text.USBD_LL_Stop,"ax",%progbits
 1018              		.align	1
 1019              		.global	USBD_LL_Stop
 1020              		.syntax unified
 1021              		.thumb
 1022              		.thumb_func
 1024              	USBD_LL_Stop:
 1025              	.LVL93:
 1026              	.LFB240:
 404:USB_DEVICE/Target/usbd_conf.c ****   HAL_StatusTypeDef hal_status = HAL_OK;
 1027              		.loc 1 404 1 is_stmt 1 view -0
 1028              		.cfi_startproc
 1029              		@ args = 0, pretend = 0, frame = 0
 1030              		@ frame_needed = 0, uses_anonymous_args = 0
 404:USB_DEVICE/Target/usbd_conf.c ****   HAL_StatusTypeDef hal_status = HAL_OK;
 1031              		.loc 1 404 1 is_stmt 0 view .LVU225
 1032 0000 08B5     		push	{r3, lr}
 1033              	.LCFI21:
 1034              		.cfi_def_cfa_offset 8
 1035              		.cfi_offset 3, -8
 1036              		.cfi_offset 14, -4
 405:USB_DEVICE/Target/usbd_conf.c ****   USBD_StatusTypeDef usb_status = USBD_OK;
 1037              		.loc 1 405 3 is_stmt 1 view .LVU226
 1038              	.LVL94:
 406:USB_DEVICE/Target/usbd_conf.c **** 
 1039              		.loc 1 406 3 view .LVU227
ARM GAS  C:\Users\DAELT-~1\AppData\Local\Temp\ccxtwJwK.s 			page 32


 408:USB_DEVICE/Target/usbd_conf.c **** 
 1040              		.loc 1 408 3 view .LVU228
 408:USB_DEVICE/Target/usbd_conf.c **** 
 1041              		.loc 1 408 16 is_stmt 0 view .LVU229
 1042 0002 D0F8C802 		ldr	r0, [r0, #712]
 1043              	.LVL95:
 408:USB_DEVICE/Target/usbd_conf.c **** 
 1044              		.loc 1 408 16 view .LVU230
 1045 0006 FFF7FEFF 		bl	HAL_PCD_Stop
 1046              	.LVL96:
 410:USB_DEVICE/Target/usbd_conf.c **** 
 1047              		.loc 1 410 3 is_stmt 1 view .LVU231
 410:USB_DEVICE/Target/usbd_conf.c **** 
 1048              		.loc 1 410 17 is_stmt 0 view .LVU232
 1049 000a FFF7FEFF 		bl	USBD_Get_USB_Status
 1050              	.LVL97:
 412:USB_DEVICE/Target/usbd_conf.c **** }
 1051              		.loc 1 412 3 is_stmt 1 view .LVU233
 413:USB_DEVICE/Target/usbd_conf.c **** 
 1052              		.loc 1 413 1 is_stmt 0 view .LVU234
 1053 000e 08BD     		pop	{r3, pc}
 1054              		.cfi_endproc
 1055              	.LFE240:
 1057              		.section	.text.USBD_LL_OpenEP,"ax",%progbits
 1058              		.align	1
 1059              		.global	USBD_LL_OpenEP
 1060              		.syntax unified
 1061              		.thumb
 1062              		.thumb_func
 1064              	USBD_LL_OpenEP:
 1065              	.LVL98:
 1066              	.LFB241:
 424:USB_DEVICE/Target/usbd_conf.c ****   HAL_StatusTypeDef hal_status = HAL_OK;
 1067              		.loc 1 424 1 is_stmt 1 view -0
 1068              		.cfi_startproc
 1069              		@ args = 0, pretend = 0, frame = 0
 1070              		@ frame_needed = 0, uses_anonymous_args = 0
 424:USB_DEVICE/Target/usbd_conf.c ****   HAL_StatusTypeDef hal_status = HAL_OK;
 1071              		.loc 1 424 1 is_stmt 0 view .LVU236
 1072 0000 08B5     		push	{r3, lr}
 1073              	.LCFI22:
 1074              		.cfi_def_cfa_offset 8
 1075              		.cfi_offset 3, -8
 1076              		.cfi_offset 14, -4
 1077 0002 9446     		mov	ip, r2
 1078 0004 1A46     		mov	r2, r3
 1079              	.LVL99:
 425:USB_DEVICE/Target/usbd_conf.c ****   USBD_StatusTypeDef usb_status = USBD_OK;
 1080              		.loc 1 425 3 is_stmt 1 view .LVU237
 426:USB_DEVICE/Target/usbd_conf.c **** 
 1081              		.loc 1 426 3 view .LVU238
 428:USB_DEVICE/Target/usbd_conf.c **** 
 1082              		.loc 1 428 3 view .LVU239
 428:USB_DEVICE/Target/usbd_conf.c **** 
 1083              		.loc 1 428 16 is_stmt 0 view .LVU240
 1084 0006 6346     		mov	r3, ip
 1085              	.LVL100:
ARM GAS  C:\Users\DAELT-~1\AppData\Local\Temp\ccxtwJwK.s 			page 33


 428:USB_DEVICE/Target/usbd_conf.c **** 
 1086              		.loc 1 428 16 view .LVU241
 1087 0008 D0F8C802 		ldr	r0, [r0, #712]
 1088              	.LVL101:
 428:USB_DEVICE/Target/usbd_conf.c **** 
 1089              		.loc 1 428 16 view .LVU242
 1090 000c FFF7FEFF 		bl	HAL_PCD_EP_Open
 1091              	.LVL102:
 430:USB_DEVICE/Target/usbd_conf.c **** 
 1092              		.loc 1 430 3 is_stmt 1 view .LVU243
 430:USB_DEVICE/Target/usbd_conf.c **** 
 1093              		.loc 1 430 17 is_stmt 0 view .LVU244
 1094 0010 FFF7FEFF 		bl	USBD_Get_USB_Status
 1095              	.LVL103:
 432:USB_DEVICE/Target/usbd_conf.c **** }
 1096              		.loc 1 432 3 is_stmt 1 view .LVU245
 433:USB_DEVICE/Target/usbd_conf.c **** 
 1097              		.loc 1 433 1 is_stmt 0 view .LVU246
 1098 0014 08BD     		pop	{r3, pc}
 1099              		.cfi_endproc
 1100              	.LFE241:
 1102              		.section	.text.USBD_LL_CloseEP,"ax",%progbits
 1103              		.align	1
 1104              		.global	USBD_LL_CloseEP
 1105              		.syntax unified
 1106              		.thumb
 1107              		.thumb_func
 1109              	USBD_LL_CloseEP:
 1110              	.LVL104:
 1111              	.LFB242:
 442:USB_DEVICE/Target/usbd_conf.c ****   HAL_StatusTypeDef hal_status = HAL_OK;
 1112              		.loc 1 442 1 is_stmt 1 view -0
 1113              		.cfi_startproc
 1114              		@ args = 0, pretend = 0, frame = 0
 1115              		@ frame_needed = 0, uses_anonymous_args = 0
 442:USB_DEVICE/Target/usbd_conf.c ****   HAL_StatusTypeDef hal_status = HAL_OK;
 1116              		.loc 1 442 1 is_stmt 0 view .LVU248
 1117 0000 08B5     		push	{r3, lr}
 1118              	.LCFI23:
 1119              		.cfi_def_cfa_offset 8
 1120              		.cfi_offset 3, -8
 1121              		.cfi_offset 14, -4
 443:USB_DEVICE/Target/usbd_conf.c ****   USBD_StatusTypeDef usb_status = USBD_OK;
 1122              		.loc 1 443 3 is_stmt 1 view .LVU249
 1123              	.LVL105:
 444:USB_DEVICE/Target/usbd_conf.c **** 
 1124              		.loc 1 444 3 view .LVU250
 446:USB_DEVICE/Target/usbd_conf.c **** 
 1125              		.loc 1 446 3 view .LVU251
 446:USB_DEVICE/Target/usbd_conf.c **** 
 1126              		.loc 1 446 16 is_stmt 0 view .LVU252
 1127 0002 D0F8C802 		ldr	r0, [r0, #712]
 1128              	.LVL106:
 446:USB_DEVICE/Target/usbd_conf.c **** 
 1129              		.loc 1 446 16 view .LVU253
 1130 0006 FFF7FEFF 		bl	HAL_PCD_EP_Close
 1131              	.LVL107:
ARM GAS  C:\Users\DAELT-~1\AppData\Local\Temp\ccxtwJwK.s 			page 34


 448:USB_DEVICE/Target/usbd_conf.c **** 
 1132              		.loc 1 448 3 is_stmt 1 view .LVU254
 448:USB_DEVICE/Target/usbd_conf.c **** 
 1133              		.loc 1 448 17 is_stmt 0 view .LVU255
 1134 000a FFF7FEFF 		bl	USBD_Get_USB_Status
 1135              	.LVL108:
 450:USB_DEVICE/Target/usbd_conf.c **** }
 1136              		.loc 1 450 3 is_stmt 1 view .LVU256
 451:USB_DEVICE/Target/usbd_conf.c **** 
 1137              		.loc 1 451 1 is_stmt 0 view .LVU257
 1138 000e 08BD     		pop	{r3, pc}
 1139              		.cfi_endproc
 1140              	.LFE242:
 1142              		.section	.text.USBD_LL_FlushEP,"ax",%progbits
 1143              		.align	1
 1144              		.global	USBD_LL_FlushEP
 1145              		.syntax unified
 1146              		.thumb
 1147              		.thumb_func
 1149              	USBD_LL_FlushEP:
 1150              	.LVL109:
 1151              	.LFB243:
 460:USB_DEVICE/Target/usbd_conf.c ****   HAL_StatusTypeDef hal_status = HAL_OK;
 1152              		.loc 1 460 1 is_stmt 1 view -0
 1153              		.cfi_startproc
 1154              		@ args = 0, pretend = 0, frame = 0
 1155              		@ frame_needed = 0, uses_anonymous_args = 0
 460:USB_DEVICE/Target/usbd_conf.c ****   HAL_StatusTypeDef hal_status = HAL_OK;
 1156              		.loc 1 460 1 is_stmt 0 view .LVU259
 1157 0000 08B5     		push	{r3, lr}
 1158              	.LCFI24:
 1159              		.cfi_def_cfa_offset 8
 1160              		.cfi_offset 3, -8
 1161              		.cfi_offset 14, -4
 461:USB_DEVICE/Target/usbd_conf.c ****   USBD_StatusTypeDef usb_status = USBD_OK;
 1162              		.loc 1 461 3 is_stmt 1 view .LVU260
 1163              	.LVL110:
 462:USB_DEVICE/Target/usbd_conf.c **** 
 1164              		.loc 1 462 3 view .LVU261
 464:USB_DEVICE/Target/usbd_conf.c **** 
 1165              		.loc 1 464 3 view .LVU262
 464:USB_DEVICE/Target/usbd_conf.c **** 
 1166              		.loc 1 464 16 is_stmt 0 view .LVU263
 1167 0002 D0F8C802 		ldr	r0, [r0, #712]
 1168              	.LVL111:
 464:USB_DEVICE/Target/usbd_conf.c **** 
 1169              		.loc 1 464 16 view .LVU264
 1170 0006 FFF7FEFF 		bl	HAL_PCD_EP_Flush
 1171              	.LVL112:
 466:USB_DEVICE/Target/usbd_conf.c **** 
 1172              		.loc 1 466 3 is_stmt 1 view .LVU265
 466:USB_DEVICE/Target/usbd_conf.c **** 
 1173              		.loc 1 466 17 is_stmt 0 view .LVU266
 1174 000a FFF7FEFF 		bl	USBD_Get_USB_Status
 1175              	.LVL113:
 468:USB_DEVICE/Target/usbd_conf.c **** }
 1176              		.loc 1 468 3 is_stmt 1 view .LVU267
ARM GAS  C:\Users\DAELT-~1\AppData\Local\Temp\ccxtwJwK.s 			page 35


 469:USB_DEVICE/Target/usbd_conf.c **** 
 1177              		.loc 1 469 1 is_stmt 0 view .LVU268
 1178 000e 08BD     		pop	{r3, pc}
 1179              		.cfi_endproc
 1180              	.LFE243:
 1182              		.section	.text.USBD_LL_StallEP,"ax",%progbits
 1183              		.align	1
 1184              		.global	USBD_LL_StallEP
 1185              		.syntax unified
 1186              		.thumb
 1187              		.thumb_func
 1189              	USBD_LL_StallEP:
 1190              	.LVL114:
 1191              	.LFB244:
 478:USB_DEVICE/Target/usbd_conf.c ****   HAL_StatusTypeDef hal_status = HAL_OK;
 1192              		.loc 1 478 1 is_stmt 1 view -0
 1193              		.cfi_startproc
 1194              		@ args = 0, pretend = 0, frame = 0
 1195              		@ frame_needed = 0, uses_anonymous_args = 0
 478:USB_DEVICE/Target/usbd_conf.c ****   HAL_StatusTypeDef hal_status = HAL_OK;
 1196              		.loc 1 478 1 is_stmt 0 view .LVU270
 1197 0000 08B5     		push	{r3, lr}
 1198              	.LCFI25:
 1199              		.cfi_def_cfa_offset 8
 1200              		.cfi_offset 3, -8
 1201              		.cfi_offset 14, -4
 479:USB_DEVICE/Target/usbd_conf.c ****   USBD_StatusTypeDef usb_status = USBD_OK;
 1202              		.loc 1 479 3 is_stmt 1 view .LVU271
 1203              	.LVL115:
 480:USB_DEVICE/Target/usbd_conf.c **** 
 1204              		.loc 1 480 3 view .LVU272
 482:USB_DEVICE/Target/usbd_conf.c **** 
 1205              		.loc 1 482 3 view .LVU273
 482:USB_DEVICE/Target/usbd_conf.c **** 
 1206              		.loc 1 482 16 is_stmt 0 view .LVU274
 1207 0002 D0F8C802 		ldr	r0, [r0, #712]
 1208              	.LVL116:
 482:USB_DEVICE/Target/usbd_conf.c **** 
 1209              		.loc 1 482 16 view .LVU275
 1210 0006 FFF7FEFF 		bl	HAL_PCD_EP_SetStall
 1211              	.LVL117:
 484:USB_DEVICE/Target/usbd_conf.c **** 
 1212              		.loc 1 484 3 is_stmt 1 view .LVU276
 484:USB_DEVICE/Target/usbd_conf.c **** 
 1213              		.loc 1 484 17 is_stmt 0 view .LVU277
 1214 000a FFF7FEFF 		bl	USBD_Get_USB_Status
 1215              	.LVL118:
 486:USB_DEVICE/Target/usbd_conf.c **** }
 1216              		.loc 1 486 3 is_stmt 1 view .LVU278
 487:USB_DEVICE/Target/usbd_conf.c **** 
 1217              		.loc 1 487 1 is_stmt 0 view .LVU279
 1218 000e 08BD     		pop	{r3, pc}
 1219              		.cfi_endproc
 1220              	.LFE244:
 1222              		.section	.text.USBD_LL_ClearStallEP,"ax",%progbits
 1223              		.align	1
 1224              		.global	USBD_LL_ClearStallEP
ARM GAS  C:\Users\DAELT-~1\AppData\Local\Temp\ccxtwJwK.s 			page 36


 1225              		.syntax unified
 1226              		.thumb
 1227              		.thumb_func
 1229              	USBD_LL_ClearStallEP:
 1230              	.LVL119:
 1231              	.LFB245:
 496:USB_DEVICE/Target/usbd_conf.c ****   HAL_StatusTypeDef hal_status = HAL_OK;
 1232              		.loc 1 496 1 is_stmt 1 view -0
 1233              		.cfi_startproc
 1234              		@ args = 0, pretend = 0, frame = 0
 1235              		@ frame_needed = 0, uses_anonymous_args = 0
 496:USB_DEVICE/Target/usbd_conf.c ****   HAL_StatusTypeDef hal_status = HAL_OK;
 1236              		.loc 1 496 1 is_stmt 0 view .LVU281
 1237 0000 08B5     		push	{r3, lr}
 1238              	.LCFI26:
 1239              		.cfi_def_cfa_offset 8
 1240              		.cfi_offset 3, -8
 1241              		.cfi_offset 14, -4
 497:USB_DEVICE/Target/usbd_conf.c ****   USBD_StatusTypeDef usb_status = USBD_OK;
 1242              		.loc 1 497 3 is_stmt 1 view .LVU282
 1243              	.LVL120:
 498:USB_DEVICE/Target/usbd_conf.c **** 
 1244              		.loc 1 498 3 view .LVU283
 500:USB_DEVICE/Target/usbd_conf.c **** 
 1245              		.loc 1 500 3 view .LVU284
 500:USB_DEVICE/Target/usbd_conf.c **** 
 1246              		.loc 1 500 16 is_stmt 0 view .LVU285
 1247 0002 D0F8C802 		ldr	r0, [r0, #712]
 1248              	.LVL121:
 500:USB_DEVICE/Target/usbd_conf.c **** 
 1249              		.loc 1 500 16 view .LVU286
 1250 0006 FFF7FEFF 		bl	HAL_PCD_EP_ClrStall
 1251              	.LVL122:
 502:USB_DEVICE/Target/usbd_conf.c **** 
 1252              		.loc 1 502 3 is_stmt 1 view .LVU287
 502:USB_DEVICE/Target/usbd_conf.c **** 
 1253              		.loc 1 502 17 is_stmt 0 view .LVU288
 1254 000a FFF7FEFF 		bl	USBD_Get_USB_Status
 1255              	.LVL123:
 504:USB_DEVICE/Target/usbd_conf.c **** }
 1256              		.loc 1 504 3 is_stmt 1 view .LVU289
 505:USB_DEVICE/Target/usbd_conf.c **** 
 1257              		.loc 1 505 1 is_stmt 0 view .LVU290
 1258 000e 08BD     		pop	{r3, pc}
 1259              		.cfi_endproc
 1260              	.LFE245:
 1262              		.section	.text.USBD_LL_SetUSBAddress,"ax",%progbits
 1263              		.align	1
 1264              		.global	USBD_LL_SetUSBAddress
 1265              		.syntax unified
 1266              		.thumb
 1267              		.thumb_func
 1269              	USBD_LL_SetUSBAddress:
 1270              	.LVL124:
 1271              	.LFB247:
 534:USB_DEVICE/Target/usbd_conf.c ****   HAL_StatusTypeDef hal_status = HAL_OK;
 1272              		.loc 1 534 1 is_stmt 1 view -0
ARM GAS  C:\Users\DAELT-~1\AppData\Local\Temp\ccxtwJwK.s 			page 37


 1273              		.cfi_startproc
 1274              		@ args = 0, pretend = 0, frame = 0
 1275              		@ frame_needed = 0, uses_anonymous_args = 0
 534:USB_DEVICE/Target/usbd_conf.c ****   HAL_StatusTypeDef hal_status = HAL_OK;
 1276              		.loc 1 534 1 is_stmt 0 view .LVU292
 1277 0000 08B5     		push	{r3, lr}
 1278              	.LCFI27:
 1279              		.cfi_def_cfa_offset 8
 1280              		.cfi_offset 3, -8
 1281              		.cfi_offset 14, -4
 535:USB_DEVICE/Target/usbd_conf.c ****   USBD_StatusTypeDef usb_status = USBD_OK;
 1282              		.loc 1 535 3 is_stmt 1 view .LVU293
 1283              	.LVL125:
 536:USB_DEVICE/Target/usbd_conf.c **** 
 1284              		.loc 1 536 3 view .LVU294
 538:USB_DEVICE/Target/usbd_conf.c **** 
 1285              		.loc 1 538 3 view .LVU295
 538:USB_DEVICE/Target/usbd_conf.c **** 
 1286              		.loc 1 538 16 is_stmt 0 view .LVU296
 1287 0002 D0F8C802 		ldr	r0, [r0, #712]
 1288              	.LVL126:
 538:USB_DEVICE/Target/usbd_conf.c **** 
 1289              		.loc 1 538 16 view .LVU297
 1290 0006 FFF7FEFF 		bl	HAL_PCD_SetAddress
 1291              	.LVL127:
 540:USB_DEVICE/Target/usbd_conf.c **** 
 1292              		.loc 1 540 3 is_stmt 1 view .LVU298
 540:USB_DEVICE/Target/usbd_conf.c **** 
 1293              		.loc 1 540 17 is_stmt 0 view .LVU299
 1294 000a FFF7FEFF 		bl	USBD_Get_USB_Status
 1295              	.LVL128:
 542:USB_DEVICE/Target/usbd_conf.c **** }
 1296              		.loc 1 542 3 is_stmt 1 view .LVU300
 543:USB_DEVICE/Target/usbd_conf.c **** 
 1297              		.loc 1 543 1 is_stmt 0 view .LVU301
 1298 000e 08BD     		pop	{r3, pc}
 1299              		.cfi_endproc
 1300              	.LFE247:
 1302              		.section	.text.USBD_LL_Transmit,"ax",%progbits
 1303              		.align	1
 1304              		.global	USBD_LL_Transmit
 1305              		.syntax unified
 1306              		.thumb
 1307              		.thumb_func
 1309              	USBD_LL_Transmit:
 1310              	.LVL129:
 1311              	.LFB248:
 554:USB_DEVICE/Target/usbd_conf.c ****   HAL_StatusTypeDef hal_status = HAL_OK;
 1312              		.loc 1 554 1 is_stmt 1 view -0
 1313              		.cfi_startproc
 1314              		@ args = 0, pretend = 0, frame = 0
 1315              		@ frame_needed = 0, uses_anonymous_args = 0
 554:USB_DEVICE/Target/usbd_conf.c ****   HAL_StatusTypeDef hal_status = HAL_OK;
 1316              		.loc 1 554 1 is_stmt 0 view .LVU303
 1317 0000 08B5     		push	{r3, lr}
 1318              	.LCFI28:
 1319              		.cfi_def_cfa_offset 8
ARM GAS  C:\Users\DAELT-~1\AppData\Local\Temp\ccxtwJwK.s 			page 38


 1320              		.cfi_offset 3, -8
 1321              		.cfi_offset 14, -4
 555:USB_DEVICE/Target/usbd_conf.c ****   USBD_StatusTypeDef usb_status = USBD_OK;
 1322              		.loc 1 555 3 is_stmt 1 view .LVU304
 1323              	.LVL130:
 556:USB_DEVICE/Target/usbd_conf.c **** 
 1324              		.loc 1 556 3 view .LVU305
 558:USB_DEVICE/Target/usbd_conf.c **** 
 1325              		.loc 1 558 3 view .LVU306
 558:USB_DEVICE/Target/usbd_conf.c **** 
 1326              		.loc 1 558 16 is_stmt 0 view .LVU307
 1327 0002 D0F8C802 		ldr	r0, [r0, #712]
 1328              	.LVL131:
 558:USB_DEVICE/Target/usbd_conf.c **** 
 1329              		.loc 1 558 16 view .LVU308
 1330 0006 FFF7FEFF 		bl	HAL_PCD_EP_Transmit
 1331              	.LVL132:
 560:USB_DEVICE/Target/usbd_conf.c **** 
 1332              		.loc 1 560 3 is_stmt 1 view .LVU309
 560:USB_DEVICE/Target/usbd_conf.c **** 
 1333              		.loc 1 560 17 is_stmt 0 view .LVU310
 1334 000a FFF7FEFF 		bl	USBD_Get_USB_Status
 1335              	.LVL133:
 562:USB_DEVICE/Target/usbd_conf.c **** }
 1336              		.loc 1 562 3 is_stmt 1 view .LVU311
 563:USB_DEVICE/Target/usbd_conf.c **** 
 1337              		.loc 1 563 1 is_stmt 0 view .LVU312
 1338 000e 08BD     		pop	{r3, pc}
 1339              		.cfi_endproc
 1340              	.LFE248:
 1342              		.section	.text.USBD_LL_PrepareReceive,"ax",%progbits
 1343              		.align	1
 1344              		.global	USBD_LL_PrepareReceive
 1345              		.syntax unified
 1346              		.thumb
 1347              		.thumb_func
 1349              	USBD_LL_PrepareReceive:
 1350              	.LVL134:
 1351              	.LFB249:
 574:USB_DEVICE/Target/usbd_conf.c ****   HAL_StatusTypeDef hal_status = HAL_OK;
 1352              		.loc 1 574 1 is_stmt 1 view -0
 1353              		.cfi_startproc
 1354              		@ args = 0, pretend = 0, frame = 0
 1355              		@ frame_needed = 0, uses_anonymous_args = 0
 574:USB_DEVICE/Target/usbd_conf.c ****   HAL_StatusTypeDef hal_status = HAL_OK;
 1356              		.loc 1 574 1 is_stmt 0 view .LVU314
 1357 0000 08B5     		push	{r3, lr}
 1358              	.LCFI29:
 1359              		.cfi_def_cfa_offset 8
 1360              		.cfi_offset 3, -8
 1361              		.cfi_offset 14, -4
 575:USB_DEVICE/Target/usbd_conf.c ****   USBD_StatusTypeDef usb_status = USBD_OK;
 1362              		.loc 1 575 3 is_stmt 1 view .LVU315
 1363              	.LVL135:
 576:USB_DEVICE/Target/usbd_conf.c **** 
 1364              		.loc 1 576 3 view .LVU316
 578:USB_DEVICE/Target/usbd_conf.c **** 
ARM GAS  C:\Users\DAELT-~1\AppData\Local\Temp\ccxtwJwK.s 			page 39


 1365              		.loc 1 578 3 view .LVU317
 578:USB_DEVICE/Target/usbd_conf.c **** 
 1366              		.loc 1 578 16 is_stmt 0 view .LVU318
 1367 0002 D0F8C802 		ldr	r0, [r0, #712]
 1368              	.LVL136:
 578:USB_DEVICE/Target/usbd_conf.c **** 
 1369              		.loc 1 578 16 view .LVU319
 1370 0006 FFF7FEFF 		bl	HAL_PCD_EP_Receive
 1371              	.LVL137:
 580:USB_DEVICE/Target/usbd_conf.c **** 
 1372              		.loc 1 580 3 is_stmt 1 view .LVU320
 580:USB_DEVICE/Target/usbd_conf.c **** 
 1373              		.loc 1 580 17 is_stmt 0 view .LVU321
 1374 000a FFF7FEFF 		bl	USBD_Get_USB_Status
 1375              	.LVL138:
 582:USB_DEVICE/Target/usbd_conf.c **** }
 1376              		.loc 1 582 3 is_stmt 1 view .LVU322
 583:USB_DEVICE/Target/usbd_conf.c **** 
 1377              		.loc 1 583 1 is_stmt 0 view .LVU323
 1378 000e 08BD     		pop	{r3, pc}
 1379              		.cfi_endproc
 1380              	.LFE249:
 1382              		.section	.bss.mem.0,"aw",%nobits
 1383              		.align	2
 1386              	mem.0:
 1387 0000 00000000 		.space	544
 1387      00000000 
 1387      00000000 
 1387      00000000 
 1387      00000000 
 1388              		.global	hpcd_USB_OTG_FS
 1389              		.section	.bss.hpcd_USB_OTG_FS,"aw",%nobits
 1390              		.align	2
 1393              	hpcd_USB_OTG_FS:
 1394 0000 00000000 		.space	1252
 1394      00000000 
 1394      00000000 
 1394      00000000 
 1394      00000000 
 1395              		.text
 1396              	.Letext0:
 1397              		.file 2 "Drivers/CMSIS/Device/ST/STM32F4xx/Include/stm32f411xe.h"
 1398              		.file 3 "C:/tools/arm-gnu-toolchain-13.2.rel1-mingw-w64-i686-arm-none-eabi/arm-none-eabi/include/m
 1399              		.file 4 "C:/tools/arm-gnu-toolchain-13.2.rel1-mingw-w64-i686-arm-none-eabi/arm-none-eabi/include/s
 1400              		.file 5 "Drivers/CMSIS/Include/core_cm4.h"
 1401              		.file 6 "Drivers/CMSIS/Device/ST/STM32F4xx/Include/stm32f4xx.h"
 1402              		.file 7 "Drivers/STM32F4xx_HAL_Driver/Inc/stm32f4xx_hal_def.h"
 1403              		.file 8 "Drivers/STM32F4xx_HAL_Driver/Inc/stm32f4xx_hal_gpio.h"
 1404              		.file 9 "Drivers/STM32F4xx_HAL_Driver/Inc/stm32f4xx_ll_usb.h"
 1405              		.file 10 "Drivers/STM32F4xx_HAL_Driver/Inc/stm32f4xx_hal_pcd.h"
 1406              		.file 11 "Middlewares/ST/STM32_USB_Device_Library/Core/Inc/usbd_def.h"
 1407              		.file 12 "Drivers/STM32F4xx_HAL_Driver/Inc/stm32f4xx_hal_pcd_ex.h"
 1408              		.file 13 "Middlewares/ST/STM32_USB_Device_Library/Core/Inc/usbd_core.h"
 1409              		.file 14 "Drivers/STM32F4xx_HAL_Driver/Inc/stm32f4xx_hal.h"
 1410              		.file 15 "Drivers/STM32F4xx_HAL_Driver/Inc/stm32f4xx_hal_cortex.h"
ARM GAS  C:\Users\DAELT-~1\AppData\Local\Temp\ccxtwJwK.s 			page 40

